(dp0
S'324967173'
p1
(dp2
V286539034
p3
(lp4
Vsafari
p5
aVff
p6
aVgc
p7
aVunknown
p8
aVie
p9
aVopera
p10
asV285473938
p11
(lp12
Vfalse
p13
aVtrue
p14
asV287549210
p15
(lp16
Vnone
p17
aVlowe's+-+tier+1+-+lo
p18
aVlowe's+-+tier+2+-+li
p19
aVdsa - outdoor
p20
aVdsa - appliances
p21
aVdsa - lighting
p22
aVdsa - lowe's
p23
aVdsa - building mater
p24
aVlowe's+-+tier+1+-+ki
p25
aVlowe's+-+tier+1+-+ho
p26
aVdsa - home decor
p27
aVlowe's+-+tier+1+-+li
p28
aVomd_digital_display
p29
aVlowe's+-+tier+1+-+ou
p30
aVdsa - tools
p31
aVdsa - kitchen
p32
aVdsa - bath
p33
aVdsa - furniture
p34
aVlowe's+-+tier+1+-+fu
p35
aVsept2013
p36
aVlowe's+-+tier+1+-+bu
p37
aVlowe's+-+tier+1+-+ba
p38
aVdsa - windows 
p39
aVlowe's+-+tier+1+-+ap
p40
aVlowe's+-+tier+1+-+ha
p41
aVpromo
p42
asV285773249
p43
(lp44
Vsearch
p45
aVdirect
p46
aVreferral
p47
aVcampaign
p48
assS'413560249'
p49
(dp50
V286539034
p51
(lp52
Vopera
p53
aVie
p54
aVgc
p55
aVunknown
p56
aVff
p57
aVsafari
p58
asV285473938
p59
(lp60
Vfalse
p61
aVtrue
p62
asV287549210
p63
(lp64
Vlowe's+-+tier+1+-+li
p65
aVnone
p66
aVdsa - kitchen
p67
aVomd_digital_display
p68
aVdsa - lowe's
p69
aVwelcome new account
p70
asV285773249
p71
(lp72
Vcampaign
p73
aVsearch
p74
aVreferral
p75
aVdirect
p76
assS'340614057'
p77
(dp78
V286539034
p79
(lp80
Vunknown
p81
aVie
p82
aVff
p83
aVgc
p84
aVsafari
p85
asV285473938
p86
(lp87
Vtrue
p88
aVfalse
p89
asV287549210
p90
(lp91
Vnone
p92
aVdsa - lowe's
p93
asV285773249
p94
(lp95
Vcampaign
p96
aVsearch
p97
aVdirect
p98
aVreferral
p99
assS'400072763'
p100
(dp101
V286539034
p102
(lp103
Vopera
p104
aVff
p105
aVie
p106
aVgc
p107
aVsafari
p108
aVunknown
p109
asV285473938
p110
(lp111
Vfalse
p112
aVtrue
p113
asV287549210
p114
(lp115
Vpromo
p116
aVnone
p117
aVdsa - lowe's
p118
aVomd_digital_display
p119
aVdsa - furniture
p120
aVdsa - tools
p121
aVdsa - kitchen
p122
aVdsa - home decor
p123
aVlowe's+-+tier+1+-+li
p124
aVlowe's+-+tier+1+-+lo
p125
aVdsa - outdoor
p126
aVdsa - bath
p127
aVlowe's+-+tier+1+-+ha
p128
aVdsa - hardware
p129
aVdsa - building mater
p130
aVflyer
p131
aVdsa - lighting
p132
asV285773249
p133
(lp134
Vreferral
p135
aVcampaign
p136
aVsearch
p137
aVdirect
p138
assS'295840616'
p139
(dp140
V286539034
p141
(lp142
Vsafari
p143
aVgc
p144
aVunknown
p145
aVie
p146
aVff
p147
aVopera
p148
asV285473938
p149
(lp150
Vtrue
p151
aVfalse
p152
asV287549210
p153
(lp154
Vnone
p155
aVdsa - lowe's
p156
aVdsa - furniture
p157
aVomd_digital_display
p158
aVlowe's+-+tier+1+-+ap
p159
aVdsa - outdoor
p160
aVlowe's+-+tier+1+-+bu
p161
aVlowe's+-+tier+1+-+li
p162
aVlowe's+-+tier+1+-+lo
p163
aVdsa - kitchen
p164
asV285773249
p165
(lp166
Vcampaign
p167
aVdirect
p168
aVreferral
p169
aVsearch
p170
assS'381531105'
p171
(dp172
V286539034
p173
(lp174
Vie
p175
aVgc
p176
aVff
p177
aVsafari
p178
aVunknown
p179
aVopera
p180
asV285473938
p181
(lp182
Vfalse
p183
aVtrue
p184
asV287549210
p185
(lp186
Vlowe's+-+tier+1+-+fu
p187
aVdsa - home decor
p188
aVlowe's+-+tier+1+-+ki
p189
aVpromo
p190
aVdsa - tools
p191
aVdsa - windows 
p192
aVlowe's+-+tier+1+-+ho
p193
aVdsa - bath
p194
aVdsa - furniture
p195
aVdsa - building mater
p196
aVdsa - appliances
p197
aVlowe's+-+tier+1+-+li
p198
aVomd_digital_display
p199
aVlowe's+-+tier+1+-+ou
p200
aVnone
p201
aVdsa - lowe's
p202
aVlowe's+-+tier+1+-+ha
p203
aVdsa - lighting
p204
aVlowe's+-+tier+1+-+lo
p205
aVlowe's+-+tier+1+-+bu
p206
aVdsa - outdoor
p207
aVdsa - kitchen
p208
aVproject quote full
p209
aVlowe's+-+tier+2+-+li
p210
asV285773249
p211
(lp212
Vdirect
p213
aVcampaign
p214
aVreferral
p215
aVsearch
p216
assS'653342540'
p217
(dp218
V286539034
p219
(lp220
Vgc
p221
aVff
p222
aVsafari
p223
aVie
p224
aVunknown
p225
aVopera
p226
asV285473938
p227
(lp228
Vtrue
p229
aVfalse
p230
asV287549210
p231
(lp232
Vnone
p233
aVdsa - bath
p234
asV285773249
p235
(lp236
Vdirect
p237
aVsearch
p238
aVcampaign
p239
aVreferral
p240
assS'393200644'
p241
(dp242
V286539034
p243
(lp244
Vopera
p245
aVie
p246
aVsafari
p247
aVgc
p248
aVff
p249
aVunknown
p250
asV285473938
p251
(lp252
Vfalse
p253
aVtrue
p254
asV287549210
p255
(lp256
Vdsa - home decor
p257
aVdsa - lowe's
p258
aVnone
p259
aVdsa - bath
p260
aVdsa - outdoor
p261
aVlowe's+-+tier+1+-+lo
p262
aVomd_digital_display
p263
aVdsa%20-%20lowe's
p264
aVdsa - lighting
p265
aVflyer
p266
aVdsa - kitchen
p267
aVdsa - hardware
p268
aVdsa - furniture
p269
aVdsa - building mater
p270
aVdsa%20-%20lowe%27s
p271
asV285773249
p272
(lp273
Vdirect
p274
aVreferral
p275
aVcampaign
p276
aVsearch
p277
assS'551813359'
p278
(dp279
V286539034
p280
(lp281
Vopera
p282
aVgc
p283
aVff
p284
aVie
p285
aVsafari
p286
aVunknown
p287
asV285473938
p288
(lp289
Vfalse
p290
aVtrue
p291
asV287549210
p292
(lp293
Vnone
p294
aVdsa - lowe's
p295
aVdsa - lighting
p296
aVdsa - bath
p297
aVlowe's+-+tier+1+-+ki
p298
aVomd_digital_display
p299
aVlowe's+-+tier+1+-+fu
p300
aVlowe's+-+tier+1+-+ho
p301
aVdsa - kitchen
p302
aVdsa - building mater
p303
aVdsa - outdoor
p304
asV285773249
p305
(lp306
Vreferral
p307
aVcampaign
p308
aVsearch
p309
aVdirect
p310
assS'462520038'
p311
(dp312
V286539034
p313
(lp314
Vgc
p315
aVff
p316
aVunknown
p317
aVie
p318
aVsafari
p319
asV285473938
p320
(lp321
Vfalse
p322
aVtrue
p323
asV287549210
p324
(lp325
Vnone
p326
asV285773249
p327
(lp328
Vreferral
p329
aVdirect
p330
aVsearch
p331
aVcampaign
p332
assS'632831271'
p333
(dp334
V286539034
p335
(lp336
Vgc
p337
aVff
p338
aVie
p339
aVsafari
p340
aVunknown
p341
aVopera
p342
asV285473938
p343
(lp344
Vfalse
p345
aVtrue
p346
asV287549210
p347
(lp348
Vnone
p349
asV285773249
p350
(lp351
Vreferral
p352
aVcampaign
p353
aVsearch
p354
aVdirect
p355
assS'321795914'
p356
(dp357
V286539034
p358
(lp359
Vgc
p360
aVsafari
p361
aVie
p362
aVff
p363
aVunknown
p364
aVopera
p365
asV285473938
p366
(lp367
Vfalse
p368
aVtrue
p369
asV287549210
p370
(lp371
Vdsa - lowe's
p372
aVnone
p373
aVomd_digital_display
p374
aVdsa - kitchen
p375
aVdsa - bath
p376
aVdsa - outdoor
p377
asV285773249
p378
(lp379
Vdirect
p380
aVcampaign
p381
aVreferral
p382
aVsearch
p383
assS'323347911'
p384
(dp385
V286539034
p386
(lp387
Vunknown
p388
aVie
p389
aVsafari
p390
aVgc
p391
aVff
p392
aVopera
p393
asV285473938
p394
(lp395
Vfalse
p396
aVtrue
p397
asV287549210
p398
(lp399
Vsept2013
p400
aVnone
p401
aVomd_digital_display
p402
aVdsa - building mater
p403
aVdsa - lowe's
p404
aVdsa - bath
p405
asV285773249
p406
(lp407
Vcampaign
p408
aVreferral
p409
aVdirect
p410
aVsearch
p411
assS'329030585'
p412
(dp413
V286539034
p414
(lp415
Vunknown
p416
aVgc
p417
aVff
p418
aVsafari
p419
aVopera
p420
aVie
p421
asV285473938
p422
(lp423
Vtrue
p424
aVfalse
p425
asV287549210
p426
(lp427
Vdsa - outdoor
p428
aVnone
p429
aVdsa - building mater
p430
aVdsa - lowe's
p431
aVdsa - home decor
p432
aVdsa - furniture
p433
aVomd_digital_display
p434
aVdsa - lighting
p435
aVlowe's+-+tier+1+-+lo
p436
aVdsa - kitchen
p437
aVlowe's+-+tier+1+-+bu
p438
aVlowe's+-+tier+1+-+li
p439
asV285773249
p440
(lp441
Vsearch
p442
aVreferral
p443
aVdirect
p444
aVcampaign
p445
assS'341156922'
p446
(dp447
V286539034
p448
(lp449
Vsafari
p450
aVie
p451
aVgc
p452
aVunknown
p453
aVff
p454
aVopera
p455
asV285473938
p456
(lp457
Vfalse
p458
aVtrue
p459
asV287549210
p460
(lp461
Vnone
p462
aVlowe's+-+tier+1+-+li
p463
aVdsa - lowe's
p464
aVdsa - outdoor
p465
aVlowe's+-+tier+1+-+ap
p466
aVdsa - building mater
p467
aVdsa - bath
p468
asV285773249
p469
(lp470
Vsearch
p471
aVcampaign
p472
aVreferral
p473
aVdirect
p474
assS'590403418'
p475
(dp476
V286539034
p477
(lp478
Vff
p479
aVunknown
p480
aVsafari
p481
aVgc
p482
aVie
p483
aVopera
p484
asV285473938
p485
(lp486
Vtrue
p487
aVfalse
p488
asV287549210
p489
(lp490
Vnone
p491
aVdsa - lowe's
p492
aVdsa - kitchen
p493
asV285773249
p494
(lp495
Vreferral
p496
aVdirect
p497
aVcampaign
p498
aVsearch
p499
assS'321735611'
p500
(dp501
V286539034
p502
(lp503
Vsafari
p504
aVgc
p505
aVff
p506
aVunknown
p507
aVie
p508
asV285473938
p509
(lp510
Vtrue
p511
aVfalse
p512
asV287549210
p513
(lp514
Vnone
p515
asV285773249
p516
(lp517
Vdirect
p518
aVsearch
p519
aVreferral
p520
aVcampaign
p521
assS'346420700'
p522
(dp523
V286539034
p524
(lp525
Vunknown
p526
aVie
p527
aVgc
p528
aVff
p529
aVsafari
p530
aVopera
p531
asV285473938
p532
(lp533
Vtrue
p534
aVfalse
p535
asV287549210
p536
(lp537
Vnone
p538
aVdsa - lowe's
p539
aVpromo
p540
aVlowe's+-+tier+1+-+lo
p541
aVdsa - home decor
p542
aVomd_digital_display
p543
asV285773249
p544
(lp545
Vsearch
p546
aVreferral
p547
aVdirect
p548
aVcampaign
p549
assS'398853350'
p550
(dp551
V286539034
p552
(lp553
Vopera
p554
aVgc
p555
aVff
p556
aVunknown
p557
aVsafari
p558
aVie
p559
asV285473938
p560
(lp561
Vfalse
p562
aVtrue
p563
asV287549210
p564
(lp565
Vnone
p566
aVdsa - lowe's
p567
aVomd_digital_display
p568
aVdsa - building mater
p569
aVdsa - bath
p570
aVdsa - furniture
p571
aVdsa - home decor
p572
aVflyer
p573
aVlowe'sannouncement
p574
asV285773249
p575
(lp576
Vdirect
p577
aVreferral
p578
aVcampaign
p579
aVsearch
p580
assS'566290334'
p581
(dp582
V286539034
p583
(lp584
Vgc
p585
aVff
p586
aVie
p587
aVsafari
p588
aVunknown
p589
aVopera
p590
asV285473938
p591
(lp592
Vfalse
p593
aVtrue
p594
asV287549210
p595
(lp596
Vnone
p597
aVdsa - lowe's
p598
asV285773249
p599
(lp600
Vcampaign
p601
aVreferral
p602
aVsearch
p603
aVdirect
p604
assS'401570280'
p605
(dp606
V286539034
p607
(lp608
Vff
p609
aVsafari
p610
aVie
p611
aVgc
p612
aVunknown
p613
aVopera
p614
asV285473938
p615
(lp616
Vtrue
p617
aVfalse
p618
asV287549210
p619
(lp620
Vlowe's+-+tier+1+-+fu
p621
aVnone
p622
aVdsa - outdoor
p623
aVomd_digital_display
p624
aVdsa - kitchen
p625
aVdsa - bath
p626
aVlowe's+-+tier+1+-+ha
p627
aVlowe's+-+tier+1+-+ho
p628
aVdsa - lowe's
p629
aVlowe's+-+tier+1+-+ba
p630
aVpromo
p631
aVdsa - tools
p632
aVorder status email
p633
aVdsa - building mater
p634
asV285773249
p635
(lp636
Vcampaign
p637
aVsearch
p638
aVreferral
p639
aVdirect
p640
assS'399230456'
p641
(dp642
V286539034
p643
(lp644
Vopera
p645
aVunknown
p646
aVgc
p647
aVie
p648
aVsafari
p649
aVff
p650
asV285473938
p651
(lp652
Vfalse
p653
aVtrue
p654
asV287549210
p655
(lp656
Vdsa - lowe's
p657
aVnone
p658
aVdsa - kitchen
p659
aVdsa - furniture
p660
aVdsa - home decor
p661
aVomd_digital_display
p662
asV285773249
p663
(lp664
Vreferral
p665
aVsearch
p666
aVcampaign
p667
aVdirect
p668
assS'620933067'
p669
(dp670
V286539034
p671
(lp672
Vgc
p673
aVunknown
p674
aVie
p675
aVsafari
p676
aVff
p677
aVopera
p678
asV285473938
p679
(lp680
Vfalse
p681
aVtrue
p682
asV287549210
p683
(lp684
Vnone
p685
aVdsa - outdoor
p686
aVdsa - lowe's
p687
aVomd_digital_display
p688
asV285773249
p689
(lp690
Vreferral
p691
aVcampaign
p692
aVdirect
p693
aVsearch
p694
assS'595280818'
p695
(dp696
V286539034
p697
(lp698
Vie
p699
aVsafari
p700
aVff
p701
aVgc
p702
aVunknown
p703
aVopera
p704
asV285473938
p705
(lp706
Vfalse
p707
aVtrue
p708
asV287549210
p709
(lp710
Vdsa - appliances
p711
aVnone
p712
aVdsa - lowe's
p713
aVomd_digital_display
p714
aVdsa - lighting
p715
aVlowe's+-+tier+1+-+fu
p716
aVdsa - kitchen
p717
aVdsa - bath
p718
asV285773249
p719
(lp720
Vreferral
p721
aVcampaign
p722
aVsearch
p723
aVdirect
p724
assS'391630039'
p725
(dp726
V286539034
p727
(lp728
Vopera
p729
aVff
p730
aVie
p731
aVsafari
p732
aVunknown
p733
aVgc
p734
asV285473938
p735
(lp736
Vfalse
p737
aVtrue
p738
asV287549210
p739
(lp740
Vdsa - lowe's
p741
aVnone
p742
aVdsa - furniture
p743
aVlowe's+-+tier+1+-+li
p744
aVomd_digital_display
p745
aVdsa - tools
p746
aVlowe's+-+tier+1+-+ha
p747
aVlowe's+-+tier+1+-+ho
p748
aVdsa - home decor
p749
asV285773249
p750
(lp751
Vcampaign
p752
aVreferral
p753
aVdirect
p754
aVsearch
p755
assS'335487677'
p756
(dp757
V286539034
p758
(lp759
Vff
p760
aVie
p761
aVsafari
p762
aVgc
p763
aVunknown
p764
aVopera
p765
asV285473938
p766
(lp767
Vfalse
p768
aVtrue
p769
asV287549210
p770
(lp771
Vnone
p772
aVdsa - lowe's
p773
aVlowe's+-+tier+1+-+lo
p774
aVlowe's+-+tier+1+-+bu
p775
aVomd_digital_display
p776
aVdsa - home decor
p777
aVdsa - outdoor
p778
asV285773249
p779
(lp780
Vreferral
p781
aVcampaign
p782
aVsearch
p783
aVdirect
p784
assS'440780116'
p785
(dp786
V286539034
p787
(lp788
Vie
p789
aVsafari
p790
aVgc
p791
aVff
p792
aVunknown
p793
aVopera
p794
asV285473938
p795
(lp796
Vfalse
p797
aVtrue
p798
asV287549210
p799
(lp800
Vdsa - home decor
p801
aVlowe's+-+tier+1+-+ha
p802
aVomd_digital_display
p803
aVdsa - lighting
p804
aVnone
p805
aVdsa - lowe's
p806
aVdsa - bath
p807
aVdsa - building mater
p808
aVdsa - outdoor
p809
aVlowe's+-+tier+1+-+lo
p810
aVdsa - kitchen
p811
aVdsa - furniture
p812
aVblack-friday
p813
aVdsa - appliances
p814
aVdsa - hardware
p815
aVpromo
p816
asV285773249
p817
(lp818
Vsearch
p819
aVcampaign
p820
aVreferral
p821
aVdirect
p822
assS'341397366'
p823
(dp824
V286539034
p825
(lp826
Vff
p827
aVsafari
p828
aVie
p829
aVgc
p830
aVunknown
p831
aVopera
p832
asV285473938
p833
(lp834
Vfalse
p835
aVtrue
p836
asV287549210
p837
(lp838
Vdsa - windows 
p839
aVdsa - furniture
p840
aVdsa - bath
p841
aVdsa - floors
p842
aVnone
p843
aVlowe's+-+tier+1+-+lo
p844
aVdsa - lowe's
p845
aVlowe's+-+tier+1+-+ho
p846
aVdsa - lighting
p847
aVomd_digital_display
p848
aVlowe's+-+tier+1+-+ha
p849
aVlowe's+-+tier+1+-+li
p850
aVdsa - kitchen
p851
aVdsa - home decor
p852
aVdsa - outdoor
p853
aVlowe's+-+tier+1+-+bu
p854
aVlowe's+-+tier+1+-+ki
p855
aVdsa - appliances
p856
aVpromo
p857
asV285773249
p858
(lp859
Vcampaign
p860
aVdirect
p861
aVreferral
p862
aVsearch
p863
assS'384100846'
p864
(dp865
V286539034
p866
(lp867
Vopera
p868
aVff
p869
aVie
p870
aVsafari
p871
aVgc
p872
aVunknown
p873
asV285473938
p874
(lp875
Vfalse
p876
aVtrue
p877
asV287549210
p878
(lp879
Vdsa - lighting
p880
aVomd_digital_display
p881
aVdsa - home decor
p882
aVdsa - lowe's
p883
aVlowe's+-+tier+1+-+lo
p884
aVorder complete - rec
p885
aVdsa - furniture
p886
aVnone
p887
aVdsa - kitchen
p888
aVha+promo_tw_oct1
p889
aVlowe's+-+tier+1+-+ba
p890
aVdsa - tools
p891
aVdsa - bath
p892
aVlowe's+-+tier+1+-+li
p893
aVdsa - outdoor
p894
aVlg lowes_tw_dec22
p895
aVprowelcome
p896
aVlowe'sannouncement
p897
aVdsa - building mater
p898
asV285773249
p899
(lp900
Vreferral
p901
aVdirect
p902
aVcampaign
p903
aVsearch
p904
assS'593370568'
p905
(dp906
V286539034
p907
(lp908
Vgc
p909
aVie
p910
aVff
p911
aVsafari
p912
aVunknown
p913
aVopera
p914
asV285473938
p915
(lp916
Vfalse
p917
aVtrue
p918
asV287549210
p919
(lp920
Vnone
p921
aVdsa - lowe's
p922
aVdsa - bath
p923
asV285773249
p924
(lp925
Vdirect
p926
aVreferral
p927
aVcampaign
p928
aVsearch
p929
assS'503510594'
p930
(dp931
V286539034
p932
(lp933
Vunknown
p934
aVff
p935
aVgc
p936
aVsafari
p937
aVie
p938
aVopera
p939
asV285473938
p940
(lp941
Vfalse
p942
aVtrue
p943
asV287549210
p944
(lp945
Vnone
p946
aVdsa - lowe's
p947
aVomd_digital_display
p948
aVlowe'sannouncement
p949
aVdsa%20-%20lowe's
p950
aVdsa - bath
p951
asV285773249
p952
(lp953
Vreferral
p954
aVcampaign
p955
aVdirect
p956
aVsearch
p957
assS'651311960'
p958
(dp959
V286539034
p960
(lp961
Vie
p962
aVsafari
p963
aVgc
p964
aVunknown
p965
aVff
p966
asV285473938
p967
(lp968
Vtrue
p969
aVfalse
p970
asV287549210
p971
(lp972
Vnone
p973
asV285773249
p974
(lp975
Vcampaign
p976
aVdirect
p977
aVsearch
p978
aVreferral
p979
assS'341396547'
p980
(dp981
V286539034
p982
(lp983
Vsafari
p984
aVff
p985
aVie
p986
aVgc
p987
aVunknown
p988
aVopera
p989
asV285473938
p990
(lp991
Vfalse
p992
aVtrue
p993
asV287549210
p994
(lp995
Vdsa - outdoor
p996
aVnone
p997
aVdsa - lowe's
p998
asV285773249
p999
(lp1000
Vcampaign
p1001
aVdirect
p1002
aVsearch
p1003
aVreferral
p1004
assS'583130947'
p1005
(dp1006
V286539034
p1007
(lp1008
Vie
p1009
aVsafari
p1010
aVff
p1011
aVgc
p1012
aVunknown
p1013
aVopera
p1014
asV285473938
p1015
(lp1016
Vfalse
p1017
aVtrue
p1018
asV287549210
p1019
(lp1020
Vlowe's+-+tier+1+-+lo
p1021
aVdsa - lowe's
p1022
aVdsa - lighting
p1023
aVnone
p1024
aVomd_digital_display
p1025
aVlowe'sannouncement
p1026
aVdsa - appliances
p1027
aVdsa - furniture
p1028
aVdsa - bath
p1029
aVdsa - kitchen
p1030
aVdsa - outdoor
p1031
aVdsa%20-%20lowe's
p1032
aVlowe's+-+tier+1+-+ki
p1033
aVdsa - home decor
p1034
aVvenpop
p1035
aVdsa - tools
p1036
aVdsa - building mater
p1037
aVdsa - hardware
p1038
asV285773249
p1039
(lp1040
Vcampaign
p1041
aVreferral
p1042
aVdirect
p1043
aVsearch
p1044
assS'391780234'
p1045
(dp1046
V286539034
p1047
(lp1048
Vie
p1049
aVgc
p1050
aVff
p1051
aVsafari
p1052
aVunknown
p1053
aVopera
p1054
asV285473938
p1055
(lp1056
Vfalse
p1057
aVtrue
p1058
asV287549210
p1059
(lp1060
Vlowe's+-+tier+2+-+ba
p1061
aVlowe's+-+tier+2+-+ho
p1062
aVdsa%20-%20lowe%27s
p1063
aVdsa - bath
p1064
aVemo-inferredsearch-a
p1065
aVha+promo_tw_oct1
p1066
aVlowe's+-+tier+2+-+fl
p1067
aVlowe's+-+tier+2+-+to
p1068
aVlowe's+-+tier+2+-+fu
p1069
aVvs4homeandgarden
p1070
aVdsa - lowes
p1071
aVha+promo_tw_sept29
p1072
aVha+promo_tw_sept26
p1073
aVlowe's+-+tier+2+-+ha
p1074
aVlowe's - tier 2 - ou
p1075
aVlowe's+-+tier+2+-+li
p1076
aVdsa - floors
p1077
aVlowe's+-+tier+2+-+bu
p1078
aVnone
p1079
aVdsa - lowe's
p1080
aVlowe's+-+tier+1+-+bu
p1081
aVomd_digital_display
p1082
aVpromo
p1083
aVlowe's+-+tier+1+-+ba
p1084
aVdsa - hardware
p1085
aVdsa - home decor
p1086
aVdsa - building mater
p1087
aVdsa - tools
p1088
aVdsa - furniture
p1089
aVlowe's+-+tier+1+-+to
p1090
aVdsa - outdoor
p1091
aVlowe's+-+tier+2+-+ou
p1092
aVlowe's+-+tier+1+-+lo
p1093
aVdsa - lighting
p1094
aVdsa - windows 
p1095
aVdsa - kitchen
p1096
aVdsa - appliances
p1097
aVlowe's+-+tier+1+-+ha
p1098
aVlowe's+-+tier+1+-+ou
p1099
aVlowe's+-+tier+1+-+li
p1100
aVlowe's+-+tier+1+-+ho
p1101
aVlowe's+-+tier+1+-+fl
p1102
aVlowe's+-+tier+1+-+ki
p1103
aVlowe's+-+tier+1+-+fu
p1104
aVlowe's+-+tier+1+-+ap
p1105
aVdsa - lowe
p1106
aVdsa%20-%20lowe's
p1107
aVlowe's+-+tier+1+-+wi
p1108
aVproject quote full
p1109
aVbazaarvoice
p1110
aVblack-friday
p1111
aVorder status email
p1112
asV285773249
p1113
(lp1114
Vdirect
p1115
aVsearch
p1116
aVcampaign
p1117
aVreferral
p1118
assS'536623635'
p1119
(dp1120
V286539034
p1121
(lp1122
Vsafari
p1123
aVff
p1124
aVgc
p1125
aVie
p1126
aVunknown
p1127
aVopera
p1128
asV285473938
p1129
(lp1130
Vtrue
p1131
aVfalse
p1132
asV287549210
p1133
(lp1134
Vnone
p1135
aVomd_digital_display
p1136
aVdsa - lowe's
p1137
aVdsa - hardware
p1138
aVdsa - kitchen
p1139
asV285773249
p1140
(lp1141
Vcampaign
p1142
aVdirect
p1143
aVreferral
p1144
aVsearch
p1145
assS'340245017'
p1146
(dp1147
V286539034
p1148
(lp1149
Vff
p1150
aVie
p1151
aVgc
p1152
aVsafari
p1153
aVunknown
p1154
aVopera
p1155
asV285473938
p1156
(lp1157
Vfalse
p1158
aVtrue
p1159
asV287549210
p1160
(lp1161
Vdsa - furniture
p1162
aVdsa - bath
p1163
aVnone
p1164
aVomd_digital_display
p1165
aVwelcome new account
p1166
aVlowe's+-+tier+1+-+li
p1167
aVdsa - lowe's
p1168
aVlowe's+-+tier+1+-+lo
p1169
asV285773249
p1170
(lp1171
Vcampaign
p1172
aVreferral
p1173
aVdirect
p1174
aVsearch
p1175
assS'594720547'
p1176
(dp1177
V286539034
p1178
(lp1179
Vgc
p1180
aVsafari
p1181
aVie
p1182
aVopera
p1183
aVunknown
p1184
aVff
p1185
asV285473938
p1186
(lp1187
Vfalse
p1188
aVtrue
p1189
asV287549210
p1190
(lp1191
Vnone
p1192
aVdsa - lowe's
p1193
aVdsa - building mater
p1194
aVomd_digital_display
p1195
aVprowelcomeemail2
p1196
aVdsa - furniture
p1197
aVlowe's+-+tier+1+-+lo
p1198
asV285773249
p1199
(lp1200
Vdirect
p1201
aVcampaign
p1202
aVsearch
p1203
aVreferral
p1204
assS'385362025'
p1205
(dp1206
V286539034
p1207
(lp1208
Vopera
p1209
aVff
p1210
aVie
p1211
aVgc
p1212
aVsafari
p1213
aVunknown
p1214
asV285473938
p1215
(lp1216
Vfalse
p1217
aVtrue
p1218
asV287549210
p1219
(lp1220
Vdsa - lowe's
p1221
aVnone
p1222
asV285773249
p1223
(lp1224
Vcampaign
p1225
aVreferral
p1226
aVdirect
p1227
aVsearch
p1228
assS'523462609'
p1229
(dp1230
V286539034
p1231
(lp1232
Vunknown
p1233
aVie
p1234
aVsafari
p1235
aVff
p1236
aVgc
p1237
aVopera
p1238
asV285473938
p1239
(lp1240
Vtrue
p1241
aVfalse
p1242
asV287549210
p1243
(lp1244
Vnone
p1245
aVomd_digital_display
p1246
aVdsa - lowe's
p1247
aVdsa - kitchen
p1248
aVlowe's+-+tier+1+-+lo
p1249
aVdsa - lighting
p1250
aVdsa - building mater
p1251
aVdsa - bath
p1252
asV285773249
p1253
(lp1254
Vcampaign
p1255
aVdirect
p1256
aVreferral
p1257
aVsearch
p1258
assS'431610122'
p1259
(dp1260
V286539034
p1261
(lp1262
Vff
p1263
aVunknown
p1264
aVsafari
p1265
aVie
p1266
aVgc
p1267
aVopera
p1268
asV285473938
p1269
(lp1270
Vtrue
p1271
aVfalse
p1272
asV287549210
p1273
(lp1274
Vnone
p1275
aVdsa - lowe's
p1276
aVlowe's+-+tier+1+-+ho
p1277
aVomd_digital_display
p1278
aVdsa - furniture
p1279
aVdsa - building mater
p1280
aVdsa - kitchen
p1281
aVdsa - tools
p1282
aVdsa - outdoor
p1283
aVdsa - lighting
p1284
aVdsa - hardware
p1285
aVdsa - bath
p1286
aVlowe's+-+tier+1+-+lo
p1287
asV285773249
p1288
(lp1289
Vsearch
p1290
aVreferral
p1291
aVdirect
p1292
aVcampaign
p1293
assS'334854329'
p1294
(dp1295
V286539034
p1296
(lp1297
Vie
p1298
aVunknown
p1299
aVgc
p1300
aVff
p1301
aVsafari
p1302
aVopera
p1303
asV285473938
p1304
(lp1305
Vfalse
p1306
aVtrue
p1307
asV287549210
p1308
(lp1309
Vnone
p1310
aVdsa - lowe's
p1311
aVdsa - furniture
p1312
aVlowe's+-+tier+1+-+ap
p1313
aVdsa - windows 
p1314
asV285773249
p1315
(lp1316
Vreferral
p1317
aVcampaign
p1318
aVsearch
p1319
aVdirect
p1320
assS'400090331'
p1321
(dp1322
V286539034
p1323
(lp1324
Vopera
p1325
aVunknown
p1326
aVff
p1327
aVgc
p1328
aVsafari
p1329
aVie
p1330
asV285473938
p1331
(lp1332
Vtrue
p1333
aVfalse
p1334
asV287549210
p1335
(lp1336
Vlowe's+-+tier+1+-+ho
p1337
aVdsa - bath
p1338
aVdsa - kitchen
p1339
aVdsa - lowe's
p1340
aVnone
p1341
aVlowe's+-+tier+1+-+ha
p1342
aVlowe's+-+tier+1+-+li
p1343
aVlowe's+-+tier+1+-+lo
p1344
aVomd_digital_display
p1345
aVdsa - building mater
p1346
aVdsa - furniture
p1347
aVdsa - lighting
p1348
aVdsa - outdoor
p1349
asV285773249
p1350
(lp1351
Vreferral
p1352
aVdirect
p1353
aVsearch
p1354
aVcampaign
p1355
assS'567930203'
p1356
(dp1357
V286539034
p1358
(lp1359
Vgc
p1360
aVie
p1361
aVsafari
p1362
aVff
p1363
aVunknown
p1364
aVopera
p1365
asV285473938
p1366
(lp1367
Vfalse
p1368
aVtrue
p1369
asV287549210
p1370
(lp1371
Vnone
p1372
aVdsa - lowe's
p1373
aVdsa - lighting
p1374
aVomd_digital_display
p1375
aVdsa - home decor
p1376
aVlowe's+-+tier+1+-+ho
p1377
aVdsa - outdoor
p1378
asV285773249
p1379
(lp1380
Vreferral
p1381
aVsearch
p1382
aVdirect
p1383
aVcampaign
p1384
assS'566573307'
p1385
(dp1386
V286539034
p1387
(lp1388
Vgc
p1389
aVff
p1390
aVie
p1391
aVsafari
p1392
aVunknown
p1393
aVopera
p1394
asV285473938
p1395
(lp1396
Vfalse
p1397
aVtrue
p1398
asV287549210
p1399
(lp1400
Vdsa - lowe's
p1401
aVdsa - furniture
p1402
aVomd_digital_display
p1403
aVnone
p1404
aVdsa - kitchen
p1405
aVdsa - outdoor
p1406
aVdsa%20-%20lowe's
p1407
aVlowe's+-+tier+1+-+ki
p1408
aVdsa - building mater
p1409
aVdsa - lighting
p1410
aVdsa - home decor
p1411
aVdsa - bath
p1412
aVdsa - hardware
p1413
aVlowe's+-+tier+1+-+lo
p1414
asV285773249
p1415
(lp1416
Vreferral
p1417
aVdirect
p1418
aVsearch
p1419
aVcampaign
p1420
assS'481721013'
p1421
(dp1422
V286539034
p1423
(lp1424
Vopera
p1425
aVie
p1426
aVunknown
p1427
aVgc
p1428
aVsafari
p1429
aVff
p1430
asV285473938
p1431
(lp1432
Vfalse
p1433
aVtrue
p1434
asV287549210
p1435
(lp1436
Vdsa - lighting
p1437
aVdsa - lowe's
p1438
aVdsa - bath
p1439
aVomd_digital_display
p1440
aVdsa - home decor
p1441
aVnone
p1442
aVdsa - outdoor
p1443
aVdsa - building mater
p1444
aVlowe's+-+tier+1+-+ho
p1445
aVdsa - kitchen
p1446
aVlowe's+-+tier+1+-+lo
p1447
aVlowe's+-+tier+1+-+to
p1448
asV285773249
p1449
(lp1450
Vcampaign
p1451
aVdirect
p1452
aVsearch
p1453
aVreferral
p1454
assS'341541185'
p1455
(dp1456
V286539034
p1457
(lp1458
Vff
p1459
aVgc
p1460
aVsafari
p1461
aVie
p1462
aVunknown
p1463
aVopera
p1464
asV285473938
p1465
(lp1466
Vfalse
p1467
aVtrue
p1468
asV287549210
p1469
(lp1470
Vdsa - floors
p1471
aVdsa - bath
p1472
aVnone
p1473
aVdsa - lowe's
p1474
aVdsa - lighting
p1475
aVlowe's+-+tier+1+-+lo
p1476
aVomd_digital_display
p1477
aVdsa - kitchen
p1478
aVlowe's+-+tier+1+-+ap
p1479
aVdsa - appliances
p1480
aVlowe's+-+tier+1+-+li
p1481
aVdsa - building mater
p1482
aVdsa - outdoor
p1483
aVdsa - hardware
p1484
aVlowe's+-+tier+1+-+ho
p1485
aVdsa - home decor
p1486
aVdsa - furniture
p1487
aVlowe's+-+tier+1+-+fu
p1488
aVlowe's+-+tier+1+-+ki
p1489
asV285773249
p1490
(lp1491
Vreferral
p1492
aVcampaign
p1493
aVsearch
p1494
aVdirect
p1495
assS'344574009'
p1496
(dp1497
V286539034
p1498
(lp1499
Vff
p1500
aVgc
p1501
aVsafari
p1502
aVie
p1503
asV285473938
p1504
(lp1505
Vfalse
p1506
aVtrue
p1507
asV287549210
p1508
(lp1509
Vnone
p1510
asV285773249
p1511
(lp1512
Vdirect
p1513
aVreferral
p1514
aVcampaign
p1515
aVsearch
p1516
assS'383680670'
p1517
(dp1518
V286539034
p1519
(lp1520
Vopera
p1521
aVie
p1522
aVff
p1523
aVgc
p1524
aVunknown
p1525
aVsafari
p1526
asV285473938
p1527
(lp1528
Vfalse
p1529
aVtrue
p1530
asV287549210
p1531
(lp1532
Vdsa - lowe's
p1533
aVlowe's+-+tier+1+-+lo
p1534
aVomd_digital_display
p1535
aVorder complete - rec
p1536
aVnone
p1537
aVdsa - kitchen
p1538
aVdsa - lighting
p1539
aVdsa - tools
p1540
aVdsa - bath
p1541
aVlowe's+-+tier+1+-+li
p1542
asV285773249
p1543
(lp1544
Vcampaign
p1545
aVreferral
p1546
aVdirect
p1547
aVsearch
p1548
assS'565980167'
p1549
(dp1550
V286539034
p1551
(lp1552
Vff
p1553
aVgc
p1554
aVie
p1555
aVsafari
p1556
aVunknown
p1557
aVopera
p1558
asV285473938
p1559
(lp1560
Vfalse
p1561
aVtrue
p1562
asV287549210
p1563
(lp1564
Vnone
p1565
aVdsa - lowe's
p1566
aVomd_digital_display
p1567
asV285773249
p1568
(lp1569
Vreferral
p1570
aVcampaign
p1571
aVsearch
p1572
aVdirect
p1573
assS'429330096'
p1574
(dp1575
V286539034
p1576
(lp1577
Vie
p1578
aVff
p1579
aVsafari
p1580
aVgc
p1581
aVunknown
p1582
aVopera
p1583
asV285473938
p1584
(lp1585
Vtrue
p1586
aVfalse
p1587
asV287549210
p1588
(lp1589
Vpromo
p1590
aVdsa - furniture
p1591
aVlowe's+-+tier+1+-+lo
p1592
aVnone
p1593
aVlowe's+-+tier+1+-+bu
p1594
aVdsa - lowe's
p1595
aVdsa - outdoor
p1596
aVomd_digital_display
p1597
aVdsa - building mater
p1598
aVlowe's+-+tier+2+-+li
p1599
aVdsa - hardware
p1600
aVdsa - bath
p1601
aVdsa - home decor
p1602
aVlowe's+-+tier+1+-+li
p1603
asV285773249
p1604
(lp1605
Vreferral
p1606
aVsearch
p1607
aVcampaign
p1608
aVdirect
p1609
assS'399440032'
p1610
(dp1611
V286539034
p1612
(lp1613
Vgc
p1614
aVunknown
p1615
aVie
p1616
aVsafari
p1617
aVff
p1618
aVopera
p1619
asV285473938
p1620
(lp1621
Vfalse
p1622
aVtrue
p1623
asV287549210
p1624
(lp1625
Vdsa - bath
p1626
aVnone
p1627
aVlowe's+-+tier+1+-+lo
p1628
aVdsa - outdoor
p1629
aVha+promo_tw_oct1
p1630
aVdsa - kitchen
p1631
aVdsa - lowe's
p1632
aVlowe's+-+tier+1+-+bu
p1633
aVomd_digital_display
p1634
aVlg lowes_tw_dec22
p1635
aVlowe's+-+tier+1+-+ba
p1636
aVorder status email
p1637
aVdsa - furniture
p1638
aVlowe's+-+tier+1+-+fu
p1639
aVdsa - home decor
p1640
aVdsa - building mater
p1641
asV285773249
p1642
(lp1643
Vreferral
p1644
aVdirect
p1645
aVsearch
p1646
aVcampaign
p1647
assS'401270400'
p1648
(dp1649
V286539034
p1650
(lp1651
Vopera
p1652
aVunknown
p1653
aVsafari
p1654
aVgc
p1655
aVie
p1656
aVff
p1657
asV285473938
p1658
(lp1659
Vtrue
p1660
aVfalse
p1661
asV287549210
p1662
(lp1663
Vdsa - lowe's
p1664
aVnone
p1665
aVomd_digital_display
p1666
aVlowe's+-+tier+1+-+lo
p1667
aVdsa - kitchen
p1668
aVdsa - furniture
p1669
aVdsa - building mater
p1670
aVdsa - bath
p1671
aVdsa - home decor
p1672
asV285773249
p1673
(lp1674
Vreferral
p1675
aVcampaign
p1676
aVsearch
p1677
aVdirect
p1678
assS'346971686'
p1679
(dp1680
V286539034
p1681
(lp1682
Vopera
p1683
aVgc
p1684
aVff
p1685
aVie
p1686
aVsafari
p1687
aVunknown
p1688
asV285473938
p1689
(lp1690
Vfalse
p1691
aVtrue
p1692
asV287549210
p1693
(lp1694
Vnone
p1695
aVomd_digital_display
p1696
aVdsa - lowe's
p1697
asV285773249
p1698
(lp1699
Vreferral
p1700
aVdirect
p1701
aVcampaign
p1702
aVsearch
p1703
assS'651590416'
p1704
(dp1705
V286539034
p1706
(lp1707
Vsafari
p1708
aVunknown
p1709
aVgc
p1710
aVie
p1711
aVff
p1712
aVopera
p1713
asV285473938
p1714
(lp1715
Vfalse
p1716
aVtrue
p1717
asV287549210
p1718
(lp1719
Vomd_digital_display
p1720
aVnone
p1721
aVdsa - lowe's
p1722
aVdsa - building mater
p1723
aVprowelcomeemail2
p1724
aVdsa - home decor
p1725
aVdsa - bath
p1726
aVlowe's+-+tier+1+-+lo
p1727
aVdsa - lighting
p1728
aVlowe'sannouncement
p1729
aVvenpop
p1730
aVdsa - kitchen
p1731
aVprowelcome
p1732
aVdsa - furniture
p1733
aVlowe's+-+tier+1+-+li
p1734
asV285773249
p1735
(lp1736
Vreferral
p1737
aVdirect
p1738
aVcampaign
p1739
aVsearch
p1740
assS'358770620'
p1741
(dp1742
V286539034
p1743
(lp1744
Vopera
p1745
aVgc
p1746
aVie
p1747
aVunknown
p1748
aVsafari
p1749
aVff
p1750
asV285473938
p1751
(lp1752
Vtrue
p1753
aVfalse
p1754
asV287549210
p1755
(lp1756
Vlowe's+-+tier+1+-+ho
p1757
aVdsa - bath
p1758
aVdsa - lowe's
p1759
aVomd_digital_display
p1760
aVdsa - tools
p1761
aVlowe's+-+tier+1+-+bu
p1762
aVnone
p1763
aVdsa - outdoor
p1764
aVlowe's+-+tier+1+-+ha
p1765
aVdsa - hardware
p1766
aVdsa - lighting
p1767
aVdsa - furniture
p1768
aVdsa - home decor
p1769
aVproject quote full
p1770
aVlowe's+-+tier+1+-+lo
p1771
aVlowe's+-+tier+1+-+fu
p1772
aVlowe's+-+tier+1+-+ap
p1773
aVpromo
p1774
aVlowe's+-+tier+2+-+li
p1775
aVdsa - windows 
p1776
aVlowe's+-+tier+1+-+li
p1777
aVdsa - building mater
p1778
aVdsa - kitchen
p1779
aVdsa - appliances
p1780
aVlowe's+-+tier+1+-+fl
p1781
aVlowe's+-+tier+1+-+ki
p1782
aVlowe's+-+tier+1+-+to
p1783
aVvs4homeandgarden
p1784
aVlowe's+-+tier+1+-+ba
p1785
aVlowe's+-+tier+2+-+ou
p1786
asV285773249
p1787
(lp1788
Vdirect
p1789
aVsearch
p1790
aVreferral
p1791
aVcampaign
p1792
assS'385380643'
p1793
(dp1794
V286539034
p1795
(lp1796
Vopera
p1797
aVie
p1798
aVsafari
p1799
aVgc
p1800
aVff
p1801
aVunknown
p1802
asV285473938
p1803
(lp1804
Vfalse
p1805
aVtrue
p1806
asV287549210
p1807
(lp1808
Vomd_digital_display
p1809
aVdsa - hardware
p1810
aVlowe's+-+tier+1+-+li
p1811
aVdsa - windows 
p1812
aVdsa - outdoor
p1813
aVlowe's+-+tier+1+-+ap
p1814
aVdsa - lowe's
p1815
aVnone
p1816
aVdsa - building mater
p1817
aVlowe's+-+tier+1+-+lo
p1818
aVpromo
p1819
aVlowe's+-+tier+1+-+bu
p1820
aVdsa - bath
p1821
aVdsa - kitchen
p1822
aVdsa - home decor
p1823
aVdsa - furniture
p1824
aVdsa - lighting
p1825
asV285773249
p1826
(lp1827
Vcampaign
p1828
aVdirect
p1829
aVreferral
p1830
aVsearch
p1831
assS'381192696'
p1832
(dp1833
V286539034
p1834
(lp1835
Vie
p1836
aVsafari
p1837
aVgc
p1838
aVff
p1839
aVunknown
p1840
aVopera
p1841
asV285473938
p1842
(lp1843
Vfalse
p1844
aVtrue
p1845
asV287549210
p1846
(lp1847
Vlowe's+-+tier+1+-+fu
p1848
aVdsa - outdoor
p1849
aVdsa - bath
p1850
aVlowe's+-+tier+1+-+ki
p1851
aVomd_digital_display
p1852
aVlowe's+-+tier+1+-+lo
p1853
aVdsa - furniture
p1854
aVdsa - lighting
p1855
aVpromo
p1856
aVdsa - lowe's
p1857
aVlowe's+-+tier+1+-+ho
p1858
aVnone
p1859
aVdsa - kitchen
p1860
aVdsa - building mater
p1861
asV285773249
p1862
(lp1863
Vsearch
p1864
aVcampaign
p1865
aVreferral
p1866
aVdirect
p1867
assS'326253908'
p1868
(dp1869
V286539034
p1870
(lp1871
Vff
p1872
aVie
p1873
aVunknown
p1874
aVsafari
p1875
aVgc
p1876
aVopera
p1877
asV285473938
p1878
(lp1879
Vtrue
p1880
aVfalse
p1881
asV287549210
p1882
(lp1883
Vnone
p1884
aVlowe's+-+tier+1+-+bu
p1885
aVomd_digital_display
p1886
aVdsa - home decor
p1887
aVdsa - lowe's
p1888
aVlowe's+-+tier+1+-+li
p1889
aVdsa - lighting
p1890
aVdsa - kitchen
p1891
aVlowe's+-+tier+1+-+to
p1892
aVlowe's+-+tier+1+-+ou
p1893
aVlowe's+-+tier+1+-+lo
p1894
aVdsa - outdoor
p1895
aVlowe's+-+tier+1+-+ha
p1896
aVdsa - building mater
p1897
aVlowe's+-+tier+1+-+ho
p1898
aVpromo
p1899
aVdsa - furniture
p1900
aVdsa - bath
p1901
aVdsa - tools
p1902
aVdsa%2520-%2520lowe's
p1903
aVlowe's+-+tier+1+-+ba
p1904
aVlowe's+-+tier+1+-+fu
p1905
asV285773249
p1906
(lp1907
Vsearch
p1908
aVdirect
p1909
aVreferral
p1910
aVcampaign
p1911
assS'341548390'
p1912
(dp1913
V286539034
p1914
(lp1915
Vie
p1916
aVsafari
p1917
aVff
p1918
aVgc
p1919
aVunknown
p1920
aVopera
p1921
asV285473938
p1922
(lp1923
Vfalse
p1924
aVtrue
p1925
asV287549210
p1926
(lp1927
Vlowe's+-+tier+1+-+bu
p1928
aVdsa - appliances
p1929
aVnone
p1930
aVdsa - lowe's
p1931
aVdsa - bath
p1932
aVlowe's+-+tier+1+-+ba
p1933
aVomd_digital_display
p1934
aVlowe's+-+tier+1+-+lo
p1935
aVdsa - building mater
p1936
aVlowe's+-+tier+1+-+li
p1937
aVlowe's+-+tier+1+-+ki
p1938
aVdsa - lighting
p1939
aVlowe's+-+tier+1+-+ho
p1940
aVlowe's+-+tier+1+-+ha
p1941
aVdsa - kitchen
p1942
aVlowe's+-+tier+1+-+ap
p1943
aVdsa - home decor
p1944
aVdsa - windows 
p1945
aVdsa - hardware
p1946
aVlowe's+-+tier+2+-+li
p1947
aVlowe's+-+tier+1+-+fu
p1948
asV285773249
p1949
(lp1950
Vsearch
p1951
aVreferral
p1952
aVdirect
p1953
aVcampaign
p1954
assS'325770185'
p1955
(dp1956
V286539034
p1957
(lp1958
Vunknown
p1959
aVff
p1960
aVsafari
p1961
aVie
p1962
aVgc
p1963
aVopera
p1964
asV285473938
p1965
(lp1966
Vfalse
p1967
aVtrue
p1968
asV287549210
p1969
(lp1970
Vnone
p1971
aVlowe's+-+tier+1+-+lo
p1972
aVlowe's+-+tier+1+-+ou
p1973
aVomd_digital_display
p1974
aVdsa - lowe's
p1975
aVlowe's+-+tier+1+-+li
p1976
aVlowe's+-+tier+1+-+ho
p1977
aVdsa - outdoor
p1978
aVdsa - kitchen
p1979
aVdsa - lighting
p1980
aVdsa - bath
p1981
aVdsa - furniture
p1982
aVlowe's+-+tier+1+-+ha
p1983
asV285773249
p1984
(lp1985
Vreferral
p1986
aVcampaign
p1987
aVdirect
p1988
aVsearch
p1989
assS'296567032'
p1990
(dp1991
V286539034
p1992
(lp1993
Vie
p1994
aVff
p1995
aVsafari
p1996
aVgc
p1997
aVunknown
p1998
aVopera
p1999
asV285473938
p2000
(lp2001
Vfalse
p2002
aVtrue
p2003
asV287549210
p2004
(lp2005
Vnone
p2006
aVdsa - lowe's
p2007
aVdsa - kitchen
p2008
aVlowe's+-+tier+1+-+ho
p2009
aVlowe's+-+tier+1+-+ou
p2010
asV285773249
p2011
(lp2012
Vreferral
p2013
aVsearch
p2014
aVcampaign
p2015
aVdirect
p2016
assS'296378765'
p2017
(dp2018
V286539034
p2019
(lp2020
Vie
p2021
aVff
p2022
aVsafari
p2023
aVgc
p2024
aVunknown
p2025
aVopera
p2026
asV285473938
p2027
(lp2028
Vtrue
p2029
aVfalse
p2030
asV287549210
p2031
(lp2032
Vdsa - hardware
p2033
aVlowe's+-+tier+1+-+li
p2034
aVnone
p2035
aVdsa - lowe's
p2036
aVlowe's+-+tier+1+-+ho
p2037
aVlowe's+-+tier+1+-+ou
p2038
aVdsa - building mater
p2039
aVdsa - lighting
p2040
aVlowe's+-+tier+1+-+fl
p2041
aVomd_digital_display
p2042
aVdsa - kitchen
p2043
aVdsa - home decor
p2044
aVlowe's+-+tier+1+-+lo
p2045
aVdsa - windows 
p2046
aVdsa - furniture
p2047
aVlowe's+-+tier+1+-+bu
p2048
aVdsa - outdoor
p2049
aVdsa - appliances
p2050
aVdsa - tools
p2051
aVlowe's+-+tier+1+-+ha
p2052
aVdsa - bath
p2053
aVlowe's+-+tier+1+-+fu
p2054
aVpromo
p2055
asV285773249
p2056
(lp2057
Vcampaign
p2058
aVreferral
p2059
aVsearch
p2060
aVdirect
p2061
assS'653135231'
p2062
(dp2063
V286539034
p2064
(lp2065
Vie
p2066
aVunknown
p2067
aVsafari
p2068
aVgc
p2069
aVff
p2070
aVopera
p2071
asV285473938
p2072
(lp2073
Vfalse
p2074
aVtrue
p2075
asV287549210
p2076
(lp2077
Vnone
p2078
aVdsa - lowe's
p2079
aVlowe's+-+tier+1+-+lo
p2080
aVomd_digital_display
p2081
aVdsa - building mater
p2082
aVprowelcomeemail2
p2083
aVdsa - bath
p2084
aVlowe's+-+tier+1+-+li
p2085
asV285773249
p2086
(lp2087
Vcampaign
p2088
aVreferral
p2089
aVdirect
p2090
aVsearch
p2091
assS'337454661'
p2092
(dp2093
V286539034
p2094
(lp2095
Vie
p2096
aVff
p2097
aVsafari
p2098
aVgc
p2099
aVunknown
p2100
aVopera
p2101
asV285473938
p2102
(lp2103
Vtrue
p2104
aVfalse
p2105
asV287549210
p2106
(lp2107
Vdsa - furniture
p2108
aVdsa - kitchen
p2109
aVnone
p2110
aVdsa - lowe's
p2111
aVlowe's+-+tier+1+-+to
p2112
asV285773249
p2113
(lp2114
Vcampaign
p2115
aVdirect
p2116
aVreferral
p2117
aVsearch
p2118
assS'401420652'
p2119
(dp2120
V286539034
p2121
(lp2122
Vsafari
p2123
aVunknown
p2124
aVgc
p2125
aVie
p2126
aVff
p2127
aVopera
p2128
asV285473938
p2129
(lp2130
Vtrue
p2131
aVfalse
p2132
asV287549210
p2133
(lp2134
Vdsa - lowe's
p2135
aVnone
p2136
aVdsa - furniture
p2137
aVlowe's+-+tier+1+-+ki
p2138
aVomd_digital_display
p2139
aVlowe's+-+tier+1+-+bu
p2140
aVlowe's+-+tier+1+-+li
p2141
aVdsa - lighting
p2142
aVdsa - home decor
p2143
aVdsa - outdoor
p2144
aVdsa - kitchen
p2145
aVdsa - appliances
p2146
asV285773249
p2147
(lp2148
Vdirect
p2149
aVreferral
p2150
aVcampaign
p2151
aVsearch
p2152
assS'548982975'
p2153
(dp2154
V286539034
p2155
(lp2156
Vunknown
p2157
aVgc
p2158
aVie
p2159
aVsafari
p2160
aVff
p2161
aVopera
p2162
asV285473938
p2163
(lp2164
Vfalse
p2165
aVtrue
p2166
asV287549210
p2167
(lp2168
Vnone
p2169
aVdsa - lowe's
p2170
aVlowe'sannouncement
p2171
aVdsa - furniture
p2172
aVomd_digital_display
p2173
asV285773249
p2174
(lp2175
Vcampaign
p2176
aVdirect
p2177
aVreferral
p2178
aVsearch
p2179
assS'597160413'
p2180
(dp2181
V286539034
p2182
(lp2183
Vsafari
p2184
aVie
p2185
aVff
p2186
aVgc
p2187
aVunknown
p2188
aVopera
p2189
asV285473938
p2190
(lp2191
Vfalse
p2192
aVtrue
p2193
asV287549210
p2194
(lp2195
Vnone
p2196
aVomd_digital_display
p2197
aVdsa - lowe's
p2198
asV285773249
p2199
(lp2200
Vreferral
p2201
aVcampaign
p2202
aVsearch
p2203
aVdirect
p2204
assS'365250320'
p2205
(dp2206
V286539034
p2207
(lp2208
Vsafari
p2209
aVff
p2210
aVie
p2211
aVgc
p2212
aVunknown
p2213
aVopera
p2214
asV285473938
p2215
(lp2216
Vfalse
p2217
aVtrue
p2218
asV287549210
p2219
(lp2220
Vlowe's+-+tier+2+-+li
p2221
aVlowe's+-+tier+2+-+ho
p2222
aVlowe's+-+tier+2+-+ha
p2223
aVlowe's+-+tier+2+-+bu
p2224
aVdsa - lowe's
p2225
aVnone
p2226
aVdsa - hardware
p2227
aVomd_digital_display
p2228
aVlowe's+-+tier+1+-+lo
p2229
aVdsa - home decor
p2230
aVdsa - tools
p2231
aVdsa - outdoor
p2232
aVlowe's+-+tier+1+-+li
p2233
aVdsa - building mater
p2234
aVdsa - bath
p2235
aVdsa - furniture
p2236
aVdsa - kitchen
p2237
aVdsa - appliances
p2238
aVdsa - lighting
p2239
aVlowe's+-+tier+1+-+fl
p2240
aVlowe's+-+tier+1+-+ba
p2241
aVlowe's+-+tier+1+-+ap
p2242
aVlowe's+-+tier+1+-+bu
p2243
aVlowe's+-+tier+1+-+to
p2244
aVlowe's+-+tier+1+-+ho
p2245
aVlowe's+-+tier+1+-+ou
p2246
aVdsa - windows 
p2247
aVlowe's+-+tier+1+-+ha
p2248
aVlowe's+-+tier+2+-+ou
p2249
aVlowe's+-+tier+1+-+fu
p2250
aVdsa - floors
p2251
aVdsa%20-%20lowe's
p2252
aVlowe's+-+tier+1+-+ki
p2253
aVdsa - lowe
p2254
aVlowe's+-+tier+1+-+wi
p2255
aVpromo
p2256
aVlowe's+-+tier+2+-+wi
p2257
aVlowe's+-+tier+2+-+ba
p2258
aVha+promo_tw_oct1
p2259
aVlowe's+-+tier+2+-+ap
p2260
aVlowe's+-+tier+2+-+ki
p2261
asV285773249
p2262
(lp2263
Vsearch
p2264
aVdirect
p2265
aVcampaign
p2266
aVreferral
p2267
assS'296497502'
p2268
(dp2269
V286539034
p2270
(lp2271
Vsafari
p2272
aVff
p2273
aVie
p2274
aVgc
p2275
aVunknown
p2276
aVopera
p2277
asV285473938
p2278
(lp2279
Vtrue
p2280
aVfalse
p2281
asV287549210
p2282
(lp2283
Vdsa - lowe's
p2284
aVomd_digital_display
p2285
aVnone
p2286
aVlowe's+-+tier+1+-+ou
p2287
aVdsa - building mater
p2288
aVlowe's+-+tier+1+-+ho
p2289
aVlowe's+-+tier+1+-+fl
p2290
aVdsa - home decor
p2291
aVdsa - kitchen
p2292
asV285773249
p2293
(lp2294
Vcampaign
p2295
aVdirect
p2296
aVreferral
p2297
aVsearch
p2298
assS'593042836'
p2299
(dp2300
V286539034
p2301
(lp2302
Vsafari
p2303
aVff
p2304
aVgc
p2305
aVie
p2306
aVunknown
p2307
aVopera
p2308
asV285473938
p2309
(lp2310
Vtrue
p2311
aVfalse
p2312
asV287549210
p2313
(lp2314
Vnone
p2315
aVdsa - lowe's
p2316
aVprowelcomeemail2
p2317
asV285773249
p2318
(lp2319
Vcampaign
p2320
aVdirect
p2321
aVreferral
p2322
aVsearch
p2323
assS'577320034'
p2324
(dp2325
V286539034
p2326
(lp2327
Vff
p2328
aVsafari
p2329
aVie
p2330
aVunknown
p2331
aVgc
p2332
aVopera
p2333
asV285473938
p2334
(lp2335
Vtrue
p2336
aVfalse
p2337
asV287549210
p2338
(lp2339
Vnone
p2340
aVdsa - lowe's
p2341
asV285773249
p2342
(lp2343
Vreferral
p2344
aVsearch
p2345
aVdirect
p2346
aVcampaign
p2347
assS'596621388'
p2348
(dp2349
V286539034
p2350
(lp2351
Vunknown
p2352
aVgc
p2353
aVsafari
p2354
aVff
p2355
aVie
p2356
asV285473938
p2357
(lp2358
Vfalse
p2359
aVtrue
p2360
asV287549210
p2361
(lp2362
Vnone
p2363
aVdsa - lowe's
p2364
asV285773249
p2365
(lp2366
Vreferral
p2367
aVcampaign
p2368
aVdirect
p2369
aVsearch
p2370
assS'413690288'
p2371
(dp2372
V286539034
p2373
(lp2374
Vff
p2375
aVie
p2376
aVgc
p2377
aVsafari
p2378
aVunknown
p2379
aVopera
p2380
asV285473938
p2381
(lp2382
Vfalse
p2383
aVtrue
p2384
asV287549210
p2385
(lp2386
Vdsa - lowe's
p2387
aVnone
p2388
aVdsa - home decor
p2389
aVdsa - lighting
p2390
aVdsa - kitchen
p2391
aVdsa - outdoor
p2392
aVdsa - furniture
p2393
asV285773249
p2394
(lp2395
Vsearch
p2396
aVcampaign
p2397
aVreferral
p2398
aVdirect
p2399
assS'382080730'
p2400
(dp2401
V286539034
p2402
(lp2403
Vopera
p2404
aVie
p2405
aVsafari
p2406
aVff
p2407
aVgc
p2408
aVunknown
p2409
asV285473938
p2410
(lp2411
Vfalse
p2412
aVtrue
p2413
asV287549210
p2414
(lp2415
Vpromo
p2416
aVomd_digital_display
p2417
aVlowe's+-+tier+1+-+lo
p2418
aVdsa - building mater
p2419
aVnone
p2420
aVdsa - lowe's
p2421
aVdsa - lighting
p2422
aVdsa - home decor
p2423
aVdsa - furniture
p2424
aVlowe's+-+tier+1+-+ki
p2425
aVdsa - bath
p2426
aVdsa - outdoor
p2427
asV285773249
p2428
(lp2429
Vcampaign
p2430
aVsearch
p2431
aVdirect
p2432
aVreferral
p2433
assS'592130538'
p2434
(dp2435
V286539034
p2436
(lp2437
Vunknown
p2438
aVie
p2439
aVff
p2440
aVgc
p2441
aVsafari
p2442
aVopera
p2443
asV285473938
p2444
(lp2445
Vfalse
p2446
aVtrue
p2447
asV287549210
p2448
(lp2449
Vnone
p2450
aVdsa - lowe's
p2451
aVdsa - home decor
p2452
asV285773249
p2453
(lp2454
Vcampaign
p2455
aVreferral
p2456
aVdirect
p2457
aVsearch
p2458
assS'384141545'
p2459
(dp2460
V286539034
p2461
(lp2462
Vie
p2463
aVff
p2464
aVgc
p2465
aVsafari
p2466
aVunknown
p2467
aVopera
p2468
asV285473938
p2469
(lp2470
Vfalse
p2471
aVtrue
p2472
asV287549210
p2473
(lp2474
Vdsa - home decor
p2475
aVdsa - furniture
p2476
aVomd_digital_display
p2477
aVdsa - bath
p2478
aVnone
p2479
aVdsa - lowe's
p2480
aVdsa - outdoor
p2481
aVdsa - appliances
p2482
aVlowe's+-+tier+1+-+lo
p2483
asV285773249
p2484
(lp2485
Vcampaign
p2486
aVreferral
p2487
aVsearch
p2488
aVdirect
p2489
assS'405620041'
p2490
(dp2491
V286539034
p2492
(lp2493
Vie
p2494
aVunknown
p2495
aVff
p2496
aVsafari
p2497
aVgc
p2498
asV285473938
p2499
(lp2500
Vfalse
p2501
aVtrue
p2502
asV287549210
p2503
(lp2504
Vnone
p2505
asV285773249
p2506
(lp2507
Vsearch
p2508
aVcampaign
p2509
aVreferral
p2510
aVdirect
p2511
assS'541160720'
p2512
(dp2513
V286539034
p2514
(lp2515
Vunknown
p2516
aVff
p2517
aVopera
p2518
aVsafari
p2519
aVgc
p2520
aVie
p2521
asV285473938
p2522
(lp2523
Vtrue
p2524
aVfalse
p2525
asV287549210
p2526
(lp2527
Vnone
p2528
aVdsa - lowe's
p2529
aVomd_digital_display
p2530
aVdsa - home decor
p2531
aVdsa - hardware
p2532
aVdsa - kitchen
p2533
asV285773249
p2534
(lp2535
Vsearch
p2536
aVdirect
p2537
aVcampaign
p2538
aVreferral
p2539
assS'566202370'
p2540
(dp2541
V286539034
p2542
(lp2543
Vgc
p2544
asV285473938
p2545
(lp2546
Vfalse
p2547
asV287549210
p2548
(lp2549
Vnone
p2550
asV285773249
p2551
(lp2552
Vreferral
p2553
assS'341952432'
p2554
(dp2555
V286539034
p2556
(lp2557
Vopera
p2558
aVie
p2559
aVff
p2560
aVgc
p2561
aVsafari
p2562
aVunknown
p2563
asV285473938
p2564
(lp2565
Vfalse
p2566
aVtrue
p2567
asV287549210
p2568
(lp2569
Vnone
p2570
aVdsa - lowe's
p2571
aVomd_digital_display
p2572
asV285773249
p2573
(lp2574
Vcampaign
p2575
aVreferral
p2576
aVdirect
p2577
aVsearch
p2578
assS'400970448'
p2579
(dp2580
V286539034
p2581
(lp2582
Vopera
p2583
aVsafari
p2584
aVff
p2585
aVie
p2586
aVgc
p2587
aVunknown
p2588
asV285473938
p2589
(lp2590
Vtrue
p2591
aVfalse
p2592
asV287549210
p2593
(lp2594
Vdsa - lowe's
p2595
aVdsa - kitchen
p2596
aVnone
p2597
aVomd_digital_display
p2598
aVlowe's+-+tier+1+-+lo
p2599
aVdsa - home decor
p2600
aVdsa - lighting
p2601
aVlowe's+-+tier+1+-+bu
p2602
aVlowe's+-+tier+1+-+ba
p2603
aVdsa - bath
p2604
aVlowe's+-+tier+1+-+li
p2605
aVdsa - building mater
p2606
asV285773249
p2607
(lp2608
Vreferral
p2609
aVdirect
p2610
aVcampaign
p2611
aVsearch
p2612
assS'298609591'
p2613
(dp2614
V286539034
p2615
(lp2616
Vunknown
p2617
aVsafari
p2618
aVie
p2619
aVgc
p2620
aVff
p2621
aVopera
p2622
asV285473938
p2623
(lp2624
Vfalse
p2625
aVtrue
p2626
asV287549210
p2627
(lp2628
Vnone
p2629
aVdsa - lowe's
p2630
aVdsa - lighting
p2631
aVdsa - furniture
p2632
aVomd_digital_display
p2633
aVlowe's+-+tier+1+-+lo
p2634
aVdsa - windows 
p2635
aVlowe's+-+tier+1+-+ho
p2636
asV285773249
p2637
(lp2638
Vreferral
p2639
aVcampaign
p2640
aVsearch
p2641
aVdirect
p2642
assS'590980749'
p2643
(dp2644
V286539034
p2645
(lp2646
Vgc
p2647
aVie
p2648
aVsafari
p2649
aVff
p2650
aVunknown
p2651
aVopera
p2652
asV285473938
p2653
(lp2654
Vtrue
p2655
aVfalse
p2656
asV287549210
p2657
(lp2658
Vnone
p2659
aVdsa - lowe's
p2660
aVdsa - bath
p2661
aVdsa - kitchen
p2662
aVdsa - home decor
p2663
aVomd_digital_display
p2664
asV285773249
p2665
(lp2666
Vreferral
p2667
aVcampaign
p2668
aVsearch
p2669
aVdirect
p2670
assS'327985220'
p2671
(dp2672
V286539034
p2673
(lp2674
Vsafari
p2675
aVff
p2676
aVgc
p2677
aVie
p2678
asV285473938
p2679
(lp2680
Vfalse
p2681
aVtrue
p2682
asV287549210
p2683
(lp2684
Vnone
p2685
asV285773249
p2686
(lp2687
Vdirect
p2688
aVsearch
p2689
aVcampaign
p2690
aVreferral
p2691
assS'339409385'
p2692
(dp2693
V286539034
p2694
(lp2695
Vff
p2696
aVgc
p2697
aVie
p2698
aVsafari
p2699
aVunknown
p2700
aVopera
p2701
asV285473938
p2702
(lp2703
Vfalse
p2704
aVtrue
p2705
asV287549210
p2706
(lp2707
Vdsa - lowe's
p2708
aVdsa - bath
p2709
aVomd_digital_display
p2710
aVnone
p2711
aVdsa - kitchen
p2712
aVlowe's+-+tier+1+-+ho
p2713
aVdsa - home decor
p2714
aVpromo
p2715
aVdsa - appliances
p2716
aVlowe's+-+tier+1+-+to
p2717
aVdsa - outdoor
p2718
aVlowe's+-+tier+1+-+li
p2719
aVdsa - furniture
p2720
asV285773249
p2721
(lp2722
Vreferral
p2723
aVcampaign
p2724
aVsearch
p2725
aVdirect
p2726
assS'384520984'
p2727
(dp2728
V286539034
p2729
(lp2730
Vie
p2731
aVsafari
p2732
aVgc
p2733
aVff
p2734
aVunknown
p2735
aVopera
p2736
asV285473938
p2737
(lp2738
Vfalse
p2739
aVtrue
p2740
asV287549210
p2741
(lp2742
Vdsa - lowe's
p2743
aVdsa - windows 
p2744
aVomd_digital_display
p2745
aVlowe's+-+tier+1+-+ho
p2746
aVnone
p2747
aVdsa - kitchen
p2748
aVdsa - outdoor
p2749
aVwelcome new account
p2750
aVdsa - lighting
p2751
aVdsa - bath
p2752
aVlowe's+-+tier+1+-+fu
p2753
aVdsa - home decor
p2754
aVdsa - building mater
p2755
aVlowe's+-+tier+1+-+li
p2756
aVdsa - furniture
p2757
aVlowe's+-+tier+1+-+lo
p2758
asV285773249
p2759
(lp2760
Vcampaign
p2761
aVreferral
p2762
aVdirect
p2763
aVsearch
p2764
assS'586661116'
p2765
(dp2766
V286539034
p2767
(lp2768
Vgc
p2769
aVie
p2770
aVsafari
p2771
aVff
p2772
aVunknown
p2773
aVopera
p2774
asV285473938
p2775
(lp2776
Vfalse
p2777
aVtrue
p2778
asV287549210
p2779
(lp2780
Vnone
p2781
aVomd_digital_display
p2782
aVdsa - lowe's
p2783
aVlowe'sannouncement
p2784
aVdsa%20-%20lowe's
p2785
aVdsa - bath
p2786
aVdsa - furniture
p2787
asV285773249
p2788
(lp2789
Vreferral
p2790
aVcampaign
p2791
aVdirect
p2792
aVsearch
p2793
assS'382480608'
p2794
(dp2795
V286539034
p2796
(lp2797
Vie
p2798
aVunknown
p2799
aVff
p2800
aVsafari
p2801
aVgc
p2802
aVopera
p2803
asV285473938
p2804
(lp2805
Vtrue
p2806
aVfalse
p2807
asV287549210
p2808
(lp2809
Vnone
p2810
aVdsa - lowe's
p2811
aVdsa - home decor
p2812
asV285773249
p2813
(lp2814
Vdirect
p2815
aVsearch
p2816
aVreferral
p2817
aVcampaign
p2818
assS'570020033'
p2819
(dp2820
V286539034
p2821
(lp2822
Vopera
p2823
aVie
p2824
aVsafari
p2825
aVgc
p2826
aVff
p2827
aVunknown
p2828
asV285473938
p2829
(lp2830
Vfalse
p2831
aVtrue
p2832
asV287549210
p2833
(lp2834
Vnone
p2835
aVdsa - lowe's
p2836
aVomd_digital_display
p2837
aVdsa - furniture
p2838
aVdsa - lighting
p2839
asV285773249
p2840
(lp2841
Vcampaign
p2842
aVsearch
p2843
aVreferral
p2844
aVdirect
p2845
assS'566460272'
p2846
(dp2847
V286539034
p2848
(lp2849
Vunknown
p2850
aVff
p2851
aVgc
p2852
aVsafari
p2853
aVie
p2854
aVopera
p2855
asV285473938
p2856
(lp2857
Vfalse
p2858
aVtrue
p2859
asV287549210
p2860
(lp2861
Vomd_digital_display
p2862
aVnone
p2863
aVdsa - lowe's
p2864
aVdsa - home decor
p2865
aVdsa - building mater
p2866
aVdsa - outdoor
p2867
asV285773249
p2868
(lp2869
Vcampaign
p2870
aVdirect
p2871
aVreferral
p2872
aVsearch
p2873
assS'404600020'
p2874
(dp2875
V286539034
p2876
(lp2877
Vgc
p2878
aVie
p2879
aVsafari
p2880
aVff
p2881
aVunknown
p2882
aVopera
p2883
asV285473938
p2884
(lp2885
Vtrue
p2886
aVfalse
p2887
asV287549210
p2888
(lp2889
Vlowe's+-+tier+1+-+ha
p2890
aVdsa - home decor
p2891
aVdsa - hardware
p2892
aVnone
p2893
aVpromo
p2894
aVlowe's+-+tier+1+-+ba
p2895
aVdsa - kitchen
p2896
aVomd_digital_display
p2897
aVlowe's+-+tier+1+-+lo
p2898
aVdsa - lowe's
p2899
aVdsa - furniture
p2900
aVlowe's+-+tier+1+-+ou
p2901
aVlowe's+-+tier+1+-+ki
p2902
aVlowe's+-+tier+1+-+li
p2903
aVdsa - outdoor
p2904
aVdsa - building mater
p2905
aVdsa - tools
p2906
aVdsa - lowe
p2907
aVdsa - bath
p2908
asV285773249
p2909
(lp2910
Vdirect
p2911
aVsearch
p2912
aVreferral
p2913
aVcampaign
p2914
assS'582440792'
p2915
(dp2916
V286539034
p2917
(lp2918
Vgc
p2919
aVie
p2920
aVsafari
p2921
aVff
p2922
aVopera
p2923
aVunknown
p2924
asV285473938
p2925
(lp2926
Vfalse
p2927
aVtrue
p2928
asV287549210
p2929
(lp2930
Vdsa - lowe's
p2931
aVdsa - kitchen
p2932
aVlowe'sannouncement
p2933
aVnone
p2934
aVdsa%20-%20lowe's
p2935
aVdsa - bath
p2936
aVomd_digital_display
p2937
aVdsa - home decor
p2938
aVdsa - lighting
p2939
aVdsa - building mater
p2940
aVdsa - furniture
p2941
aVdsa - outdoor
p2942
aVlowe's+-+tier+1+-+lo
p2943
aVpromo
p2944
aVlg lowes_tw_dec22
p2945
aVprowelcomeemail
p2946
aVprowelcome
p2947
aVprowelcomeemail2
p2948
aVlowe's+-+tier+1+-+fu
p2949
aVdsa - hardware
p2950
aVlowe's+-+tier+1+-+li
p2951
aVvenpop
p2952
aVdsa - appliances
p2953
aVlowe's+-+tier+1+-+ki
p2954
aVdsa%2520-%2520lowe's
p2955
aVlowe's+-+tier+1+-+fl
p2956
aVflyer
p2957
asV285773249
p2958
(lp2959
Vreferral
p2960
aVsearch
p2961
aVcampaign
p2962
aVdirect
p2963
assS'340994626'
p2964
(dp2965
V286539034
p2966
(lp2967
Vunknown
p2968
aVff
p2969
aVsafari
p2970
aVie
p2971
aVgc
p2972
aVopera
p2973
asV285473938
p2974
(lp2975
Vfalse
p2976
aVtrue
p2977
asV287549210
p2978
(lp2979
Vnone
p2980
aVdsa - lowe's
p2981
aVdsa - lighting
p2982
aVomd_digital_display
p2983
asV285773249
p2984
(lp2985
Vreferral
p2986
aVcampaign
p2987
aVdirect
p2988
aVsearch
p2989
assS'398920021'
p2990
(dp2991
V286539034
p2992
(lp2993
Vgc
p2994
aVsafari
p2995
aVunknown
p2996
aVff
p2997
aVie
p2998
aVopera
p2999
asV285473938
p3000
(lp3001
Vtrue
p3002
aVfalse
p3003
asV287549210
p3004
(lp3005
Vomd_digital_display
p3006
aVlowe's+-+tier+1+-+li
p3007
aVlowe's+-+tier+1+-+ou
p3008
aVdsa - appliances
p3009
aVdsa - lighting
p3010
aVnone
p3011
aVlowe's+-+tier+1+-+ha
p3012
aVdsa - lowe's
p3013
aVlowe's+-+tier+1+-+ho
p3014
aVlowe's+-+tier+1+-+lo
p3015
aVdsa - home decor
p3016
aVdsa - building mater
p3017
aVdsa - outdoor
p3018
aVdsa - furniture
p3019
aVdsa%20-%20lowe's
p3020
asV285773249
p3021
(lp3022
Vdirect
p3023
aVsearch
p3024
aVreferral
p3025
aVcampaign
p3026
assS'409790592'
p3027
(dp3028
V286539034
p3029
(lp3030
Vff
p3031
aVgc
p3032
aVie
p3033
aVsafari
p3034
aVunknown
p3035
aVopera
p3036
asV285473938
p3037
(lp3038
Vfalse
p3039
aVtrue
p3040
asV287549210
p3041
(lp3042
Vdsa - kitchen
p3043
aVnone
p3044
aVdsa - hardware
p3045
aVdsa - lowe's
p3046
aVdsa - bath
p3047
aVomd_digital_display
p3048
aVdsa - home decor
p3049
aVdsa - building mater
p3050
asV285773249
p3051
(lp3052
Vsearch
p3053
aVcampaign
p3054
aVreferral
p3055
aVdirect
p3056
assS'360180547'
p3057
(dp3058
V286539034
p3059
(lp3060
Vsafari
p3061
aVunknown
p3062
aVopera
p3063
aVie
p3064
aVff
p3065
aVgc
p3066
asV285473938
p3067
(lp3068
Vfalse
p3069
aVtrue
p3070
asV287549210
p3071
(lp3072
Vnone
p3073
aVdsa - lowe's
p3074
asV285773249
p3075
(lp3076
Vcampaign
p3077
aVsearch
p3078
aVdirect
p3079
aVreferral
p3080
assS'577020315'
p3081
(dp3082
V286539034
p3083
(lp3084
Vff
p3085
aVsafari
p3086
aVie
p3087
aVgc
p3088
aVunknown
p3089
asV285473938
p3090
(lp3091
Vtrue
p3092
aVfalse
p3093
asV287549210
p3094
(lp3095
Vnone
p3096
asV285773249
p3097
(lp3098
Vsearch
p3099
aVdirect
p3100
aVcampaign
p3101
aVreferral
p3102
assS'341541096'
p3103
(dp3104
V286539034
p3105
(lp3106
Vie
p3107
aVff
p3108
aVgc
p3109
aVsafari
p3110
aVunknown
p3111
aVopera
p3112
asV285473938
p3113
(lp3114
Vfalse
p3115
aVtrue
p3116
asV287549210
p3117
(lp3118
Vlowe's+-+tier+1+-+li
p3119
aVdsa - home decor
p3120
aVdsa - building mater
p3121
aVdsa - kitchen
p3122
aVlowe's+-+tier+1+-+lo
p3123
aVnone
p3124
aVdsa - lighting
p3125
aVdsa - lowe's
p3126
aVdsa - outdoor
p3127
aVomd_digital_display
p3128
aVdsa - bath
p3129
aVdsa - furniture
p3130
aVpromo
p3131
asV285773249
p3132
(lp3133
Vcampaign
p3134
aVdirect
p3135
aVsearch
p3136
aVreferral
p3137
assS'604201132'
p3138
(dp3139
V286539034
p3140
(lp3141
Vgc
p3142
aVsafari
p3143
aVff
p3144
aVie
p3145
aVunknown
p3146
aVopera
p3147
asV285473938
p3148
(lp3149
Vfalse
p3150
aVtrue
p3151
asV287549210
p3152
(lp3153
Vnone
p3154
aVomd_digital_display
p3155
aVdsa - kitchen
p3156
aVdsa - outdoor
p3157
aVdsa - lowe's
p3158
aVdsa%20-%20lowe's
p3159
aVdsa - building mater
p3160
aVdsa - bath
p3161
aVlowe's+-+tier+1+-+lo
p3162
aVlowe's+-+tier+1+-+fu
p3163
aVvenpop
p3164
aVdsa - home decor
p3165
aVprowelcomeemail2
p3166
aVdsa - lighting
p3167
aVprowelcome
p3168
aVlowe's+-+tier+1+-+li
p3169
aVdsa - furniture
p3170
aVdsa - hardware
p3171
aVlowe'sannouncement
p3172
asV285773249
p3173
(lp3174
Vreferral
p3175
aVdirect
p3176
aVsearch
p3177
aVcampaign
p3178
assS'557250169'
p3179
(dp3180
V286539034
p3181
(lp3182
Vie
p3183
aVunknown
p3184
aVgc
p3185
aVsafari
p3186
aVff
p3187
aVopera
p3188
asV285473938
p3189
(lp3190
Vfalse
p3191
aVtrue
p3192
asV287549210
p3193
(lp3194
Vdsa - kitchen
p3195
aVomd_digital_display
p3196
aVdsa - bath
p3197
aVdsa - lowe's
p3198
aVwelcome new account
p3199
aVdsa%20-%20lowe's
p3200
aVnone
p3201
aVdsa - lighting
p3202
aVdsa - furniture
p3203
aVdsa - home decor
p3204
aVorder status email
p3205
aVdsa - outdoor
p3206
aVlowe's+-+tier+1+-+ki
p3207
aVdsa - tools
p3208
aVlowe's+-+tier+1+-+ho
p3209
aVdsa - building mater
p3210
aVdsa - lowe
p3211
aVprowelcome
p3212
aVflyer
p3213
aVdsa - hardware
p3214
aVlowe's+-+tier+1+-+lo
p3215
aVlowe's+-+tier+1+-+ou
p3216
aVlg lowes_tw_dec22
p3217
aVlowe's+-+tier+1+-+li
p3218
aVlowe'sannouncement
p3219
aVdsa - appliances
p3220
aVlowe's+-+tier+1+-+fu
p3221
asV285773249
p3222
(lp3223
Vcampaign
p3224
aVreferral
p3225
aVdirect
p3226
aVsearch
p3227
assS'321919066'
p3228
(dp3229
V286539034
p3230
(lp3231
Vff
p3232
aVsafari
p3233
aVgc
p3234
aVie
p3235
aVunknown
p3236
asV285473938
p3237
(lp3238
Vtrue
p3239
aVfalse
p3240
asV287549210
p3241
(lp3242
Vnone
p3243
aVdsa - lowe's
p3244
asV285773249
p3245
(lp3246
Vdirect
p3247
aVsearch
p3248
aVcampaign
p3249
aVreferral
p3250
assS'341366779'
p3251
(dp3252
V286539034
p3253
(lp3254
Vsafari
p3255
aVff
p3256
aVie
p3257
aVgc
p3258
aVunknown
p3259
aVopera
p3260
asV285473938
p3261
(lp3262
Vtrue
p3263
aVfalse
p3264
asV287549210
p3265
(lp3266
Vdsa - hardware
p3267
aVnone
p3268
aVdsa - lowe's
p3269
aVdsa - home decor
p3270
aVdsa - furniture
p3271
aVdsa - bath
p3272
asV285773249
p3273
(lp3274
Vcampaign
p3275
aVreferral
p3276
aVdirect
p3277
aVsearch
p3278
assS'574140440'
p3279
(dp3280
V286539034
p3281
(lp3282
Vgc
p3283
aVff
p3284
aVie
p3285
aVsafari
p3286
aVunknown
p3287
aVopera
p3288
asV285473938
p3289
(lp3290
Vtrue
p3291
aVfalse
p3292
asV287549210
p3293
(lp3294
Vlowe's+-+tier+1+-+ba
p3295
aVdsa - tools
p3296
aVnone
p3297
aVlowe'sannouncement
p3298
aVdsa - kitchen
p3299
aVomd_digital_display
p3300
aVdsa - lowe's
p3301
aVdsa - bath
p3302
aVflyer
p3303
aVdsa - lighting
p3304
aVdsa - home decor
p3305
aVdsa - outdoor
p3306
aVlowe's+-+tier+1+-+fu
p3307
aVdsa - hardware
p3308
aVdsa - furniture
p3309
aVpromo
p3310
aVdsa%20-%20lowe's
p3311
aVlowe's+-+tier+1+-+ho
p3312
aVdsa - building mater
p3313
aVlowe's+-+tier+1+-+lo
p3314
aVlowe's+-+tier+1+-+li
p3315
aVvenpop
p3316
aVlowe's+-+tier+1+-+bu
p3317
aVdsa%20-%20lowe%27s
p3318
aVdsa - appliances
p3319
aVlg lowes promo_fb_fe
p3320
aVlowe's+-+tier+1+-+ki
p3321
aVlg lowes_tw_dec22
p3322
aVdsa%2520-%2520lowe's
p3323
aVlowe's+-+tier+1+-+to
p3324
aVprowelcomeemail2
p3325
aVlowe's+-+tier+1+-+wi
p3326
aVdsa - lowe
p3327
aVprowelcome
p3328
aVdsa - floors
p3329
aVlowe's+-+tier+1+-+ou
p3330
aVlowe's+-+tier+1+-+fl
p3331
asV285773249
p3332
(lp3333
Vdirect
p3334
aVreferral
p3335
aVcampaign
p3336
aVsearch
p3337
assS'592551616'
p3338
(dp3339
V286539034
p3340
(lp3341
Vgc
p3342
aVff
p3343
aVsafari
p3344
aVie
p3345
aVunknown
p3346
aVopera
p3347
asV285473938
p3348
(lp3349
Vfalse
p3350
aVtrue
p3351
asV287549210
p3352
(lp3353
Vnone
p3354
aVomd_digital_display
p3355
aVdsa - lowe's
p3356
aVdsa - building mater
p3357
aVprowelcomeemail2
p3358
aVdsa - lighting
p3359
asV285773249
p3360
(lp3361
Vreferral
p3362
aVdirect
p3363
aVcampaign
p3364
aVsearch
p3365
assS'547193242'
p3366
(dp3367
V286539034
p3368
(lp3369
Vgc
p3370
aVsafari
p3371
aVie
p3372
aVff
p3373
aVunknown
p3374
asV285473938
p3375
(lp3376
Vfalse
p3377
aVtrue
p3378
asV287549210
p3379
(lp3380
Vnone
p3381
aVdsa - lowe's
p3382
asV285773249
p3383
(lp3384
Vcampaign
p3385
aVreferral
p3386
aVdirect
p3387
aVsearch
p3388
assS'574200023'
p3389
(dp3390
V286539034
p3391
(lp3392
Vie
p3393
aVsafari
p3394
aVff
p3395
aVgc
p3396
aVunknown
p3397
aVopera
p3398
asV285473938
p3399
(lp3400
Vfalse
p3401
aVtrue
p3402
asV287549210
p3403
(lp3404
Vdsa - outdoor
p3405
aVnone
p3406
aVdsa - furniture
p3407
aVdsa - lowe's
p3408
aVomd_digital_display
p3409
aVflyer
p3410
aVdsa - tools
p3411
aVdsa - kitchen
p3412
aVdsa%20-%20lowe's
p3413
aVdsa - lighting
p3414
asV285773249
p3415
(lp3416
Vcampaign
p3417
aVdirect
p3418
aVreferral
p3419
aVsearch
p3420
assS'303970150'
p3421
(dp3422
V286539034
p3423
(lp3424
Vgc
p3425
aVff
p3426
aVopera
p3427
aVsafari
p3428
aVie
p3429
aVunknown
p3430
asV285473938
p3431
(lp3432
Vfalse
p3433
aVtrue
p3434
asV287549210
p3435
(lp3436
Vwelcome new account
p3437
aVorder status email
p3438
aVdsa - bath
p3439
aVlowe's+-+tier+1+-+ba
p3440
aVlowe's+-+tier+1+-+ki
p3441
aVpromo
p3442
aVdsa - outdoor
p3443
aVvs4homeandgarden
p3444
aVdsa - tools
p3445
aVdsa - appliances
p3446
aVlowe's+-+tier+1+-+li
p3447
aVdsa - kitchen
p3448
aVdsa - building mater
p3449
aVlowe's+-+tier+1+-+bu
p3450
aVdsa - lighting
p3451
aVlowe's+-+tier+1+-+ap
p3452
aVlowe's+-+tier+1+-+fu
p3453
aVlowe's+-+tier+1+-+fl
p3454
aVlowe's+-+tier+2+-+ho
p3455
aVlowe's+-+tier+2+-+li
p3456
aVsept2013
p3457
aVlowe's+-+tier+1+-+ha
p3458
aVdsa - lowe
p3459
aVlowe's+-+tier+1+-+ho
p3460
aVorder complete - rec
p3461
aVlowe's+-+tier+2+-+fu
p3462
aVdsa - hardware
p3463
aVomd_digital_display
p3464
aVlowe's+-+tier+1+-+lo
p3465
aVdsa - home decor
p3466
aVdsa - furniture
p3467
aVnone
p3468
aVdsa - floors
p3469
aVdsa - lowe's
p3470
aVdsa - windows 
p3471
aVlowe's+-+tier+1+-+ou
p3472
aVlowe's+-+tier+1+-+to
p3473
aVproject quote full
p3474
aVlowe's+-+tier+2+-+ou
p3475
aVblack-friday
p3476
aVflyer
p3477
aVdsa%20-%20lowe's
p3478
aVvenpop
p3479
aVlg lowes promo_fb_fe
p3480
asV285773249
p3481
(lp3482
Vsearch
p3483
aVcampaign
p3484
aVdirect
p3485
aVreferral
p3486
assS'340567968'
p3487
(dp3488
V286539034
p3489
(lp3490
Vopera
p3491
aVgc
p3492
aVunknown
p3493
aVie
p3494
aVsafari
p3495
aVff
p3496
asV285473938
p3497
(lp3498
Vfalse
p3499
aVtrue
p3500
asV287549210
p3501
(lp3502
Vdsa - furniture
p3503
aVlowe's+-+tier+1+-+bu
p3504
aVlowe's+-+tier+1+-+ha
p3505
aVproject quote full
p3506
aVdsa - floors
p3507
aVnone
p3508
aVdsa - lowe's
p3509
aVlowe's+-+tier+1+-+ho
p3510
aVomd_digital_display
p3511
aVlowe's+-+tier+1+-+ba
p3512
aVdsa - lighting
p3513
aVlowe's+-+tier+1+-+ou
p3514
aVdsa - outdoor
p3515
aVdsa - kitchen
p3516
aVlowe's+-+tier+1+-+lo
p3517
aVdsa - tools
p3518
aVlowe's+-+tier+1+-+li
p3519
aVlowe's+-+tier+1+-+ki
p3520
aVdsa - appliances
p3521
aVdsa - windows 
p3522
aVdsa - home decor
p3523
aVdsa - bath
p3524
aVlowe's+-+tier+1+-+ap
p3525
aVdsa - hardware
p3526
aVdsa - building mater
p3527
aVlowe's+-+tier+2+-+li
p3528
aVlowe's+-+tier+1+-+fu
p3529
aVlowe's+-+tier+1+-+to
p3530
aVpromo
p3531
aVlowe's+-+tier+1+-+fl
p3532
asV285773249
p3533
(lp3534
Vreferral
p3535
aVsearch
p3536
aVdirect
p3537
aVcampaign
p3538
assS'604120404'
p3539
(dp3540
V286539034
p3541
(lp3542
Vunknown
p3543
aVgc
p3544
aVff
p3545
aVie
p3546
aVsafari
p3547
aVopera
p3548
asV285473938
p3549
(lp3550
Vfalse
p3551
aVtrue
p3552
asV287549210
p3553
(lp3554
Vnone
p3555
aVdsa - lowe's
p3556
aVdsa - bath
p3557
aVomd_digital_display
p3558
aVlowe's+-+tier+1+-+fu
p3559
asV285773249
p3560
(lp3561
Vreferral
p3562
aVcampaign
p3563
aVsearch
p3564
aVdirect
p3565
assS'381253003'
p3566
(dp3567
V286539034
p3568
(lp3569
Vsafari
p3570
aVff
p3571
aVunknown
p3572
aVie
p3573
aVgc
p3574
aVopera
p3575
asV285473938
p3576
(lp3577
Vtrue
p3578
aVfalse
p3579
asV287549210
p3580
(lp3581
Vlowe's+-+tier+1+-+fu
p3582
aVdsa - lighting
p3583
aVlowe's+-+tier+1+-+bu
p3584
aVlowe's+-+tier+1+-+ou
p3585
aVpromo
p3586
aVlowe's+-+tier+1+-+lo
p3587
aVlowe's+-+tier+1+-+ho
p3588
aVdsa - furniture
p3589
aVdsa - outdoor
p3590
aVlowe's+-+tier+1+-+li
p3591
aVnone
p3592
aVdsa - lowe's
p3593
aVomd_digital_display
p3594
aVlowe's+-+tier+1+-+ha
p3595
aVdsa - hardware
p3596
aVdsa - building mater
p3597
aVdsa - bath
p3598
aVlowe's+-+tier+1+-+ba
p3599
aVdsa - kitchen
p3600
aVlowe's+-+tier+1+-+ki
p3601
aVdsa - home decor
p3602
aVdsa - windows 
p3603
aVdsa - tools
p3604
asV285773249
p3605
(lp3606
Vsearch
p3607
aVcampaign
p3608
aVreferral
p3609
aVdirect
p3610
assS'401050023'
p3611
(dp3612
V286539034
p3613
(lp3614
Vgc
p3615
aVie
p3616
aVff
p3617
aVsafari
p3618
aVunknown
p3619
aVopera
p3620
asV285473938
p3621
(lp3622
Vfalse
p3623
aVtrue
p3624
asV287549210
p3625
(lp3626
Vnone
p3627
aVdsa - lowe's
p3628
aVlowe's+-+tier+1+-+lo
p3629
aVomd_digital_display
p3630
asV285773249
p3631
(lp3632
Vsearch
p3633
aVcampaign
p3634
aVreferral
p3635
aVdirect
p3636
assS'334773647'
p3637
(dp3638
V286539034
p3639
(lp3640
Vgc
p3641
aVunknown
p3642
aVie
p3643
aVff
p3644
aVsafari
p3645
aVopera
p3646
asV285473938
p3647
(lp3648
Vfalse
p3649
aVtrue
p3650
asV287549210
p3651
(lp3652
Vnone
p3653
asV285773249
p3654
(lp3655
Vsearch
p3656
aVcampaign
p3657
aVreferral
p3658
aVdirect
p3659
assS'381392679'
p3660
(dp3661
V286539034
p3662
(lp3663
Vff
p3664
aVie
p3665
aVsafari
p3666
aVgc
p3667
aVunknown
p3668
aVopera
p3669
asV285473938
p3670
(lp3671
Vfalse
p3672
aVtrue
p3673
asV287549210
p3674
(lp3675
Vlowe's+-+tier+1+-+ba
p3676
aVdsa - outdoor
p3677
aVlowe's+-+tier+1+-+ki
p3678
aVdsa - kitchen
p3679
aVlowe's+-+tier+1+-+ap
p3680
aVdsa - windows 
p3681
aVdsa - tools
p3682
aVlowe's+-+tier+1+-+ou
p3683
aVlowe's+-+tier+1+-+bu
p3684
aVpromo
p3685
aVlowe's+-+tier+1+-+lo
p3686
aVnone
p3687
aVomd_digital_display
p3688
aVdsa - bath
p3689
aVlowe's+-+tier+1+-+fu
p3690
aVdsa - building mater
p3691
aVdsa - lowe's
p3692
aVlowe's+-+tier+1+-+li
p3693
aVdsa - appliances
p3694
aVlowe's+-+tier+1+-+ho
p3695
aVdsa - home decor
p3696
asV285773249
p3697
(lp3698
Vcampaign
p3699
aVreferral
p3700
aVsearch
p3701
aVdirect
p3702
assS'340181185'
p3703
(dp3704
V286539034
p3705
(lp3706
Vff
p3707
aVsafari
p3708
aVie
p3709
aVgc
p3710
aVunknown
p3711
aVopera
p3712
asV285473938
p3713
(lp3714
Vfalse
p3715
aVtrue
p3716
asV287549210
p3717
(lp3718
Vdsa - bath
p3719
aVnone
p3720
aVomd_digital_display
p3721
aVdsa - lowe's
p3722
aVwelcome new account
p3723
aVdsa - furniture
p3724
aVlowe's+-+tier+1+-+lo
p3725
asV285773249
p3726
(lp3727
Vcampaign
p3728
aVsearch
p3729
aVdirect
p3730
aVreferral
p3731
assS'631560239'
p3732
(dp3733
V286539034
p3734
(lp3735
Vgc
p3736
aVff
p3737
aVsafari
p3738
aVie
p3739
aVunknown
p3740
aVopera
p3741
asV285473938
p3742
(lp3743
Vfalse
p3744
aVtrue
p3745
asV287549210
p3746
(lp3747
Vnone
p3748
asV285773249
p3749
(lp3750
Vreferral
p3751
aVdirect
p3752
aVsearch
p3753
aVcampaign
p3754
assS'548139230'
p3755
(dp3756
V286539034
p3757
(lp3758
Vgc
p3759
aVunknown
p3760
aVie
p3761
aVsafari
p3762
aVff
p3763
asV285473938
p3764
(lp3765
Vfalse
p3766
aVtrue
p3767
asV287549210
p3768
(lp3769
Vnone
p3770
aVdsa - lowe's
p3771
asV285773249
p3772
(lp3773
Vcampaign
p3774
aVsearch
p3775
aVreferral
p3776
aVdirect
p3777
assS'296416394'
p3778
(dp3779
V286539034
p3780
(lp3781
Vff
p3782
aVsafari
p3783
aVie
p3784
aVgc
p3785
aVopera
p3786
aVunknown
p3787
asV285473938
p3788
(lp3789
Vfalse
p3790
aVtrue
p3791
asV287549210
p3792
(lp3793
Vlowe's+-+tier+1+-+lo
p3794
aVnone
p3795
aVdsa - lowe's
p3796
aVlowe's+-+tier+1+-+ho
p3797
aVomd_digital_display
p3798
asV285773249
p3799
(lp3800
Vreferral
p3801
aVdirect
p3802
aVcampaign
p3803
aVsearch
p3804
assS'298746201'
p3805
(dp3806
V286539034
p3807
(lp3808
Vff
p3809
aVunknown
p3810
aVgc
p3811
aVie
p3812
aVsafari
p3813
aVopera
p3814
asV285473938
p3815
(lp3816
Vfalse
p3817
aVtrue
p3818
asV287549210
p3819
(lp3820
Vnone
p3821
aVomd_digital_display
p3822
aVdsa - lowe's
p3823
aVdsa - building mater
p3824
asV285773249
p3825
(lp3826
Vcampaign
p3827
aVreferral
p3828
aVsearch
p3829
aVdirect
p3830
assS'584340021'
p3831
(dp3832
V286539034
p3833
(lp3834
Vsafari
p3835
aVgc
p3836
aVie
p3837
aVff
p3838
aVunknown
p3839
asV285473938
p3840
(lp3841
Vtrue
p3842
aVfalse
p3843
asV287549210
p3844
(lp3845
Vnone
p3846
aVdsa - lowe's
p3847
asV285773249
p3848
(lp3849
Vdirect
p3850
aVreferral
p3851
aVcampaign
p3852
aVsearch
p3853
assS'324955379'
p3854
(dp3855
V286539034
p3856
(lp3857
Vgc
p3858
aVunknown
p3859
aVie
p3860
aVsafari
p3861
aVff
p3862
aVopera
p3863
asV285473938
p3864
(lp3865
Vfalse
p3866
aVtrue
p3867
asV287549210
p3868
(lp3869
Vnone
p3870
aVomd_digital_display
p3871
aVdsa - building mater
p3872
aVdsa - lowe's
p3873
aVdsa - bath
p3874
aVdsa - outdoor
p3875
aVdsa - lighting
p3876
aVdsa - kitchen
p3877
aVlowe's+-+tier+1+-+li
p3878
aVwelcome new account
p3879
asV285773249
p3880
(lp3881
Vcampaign
p3882
aVreferral
p3883
aVdirect
p3884
aVsearch
p3885
assS'657990763'
p3886
(dp3887
V286539034
p3888
(lp3889
Vopera
p3890
aVff
p3891
aVgc
p3892
aVie
p3893
aVsafari
p3894
aVunknown
p3895
asV285473938
p3896
(lp3897
Vfalse
p3898
aVtrue
p3899
asV287549210
p3900
(lp3901
Vnone
p3902
aVdsa - lowe's
p3903
aVdsa - furniture
p3904
asV285773249
p3905
(lp3906
Vreferral
p3907
aVcampaign
p3908
aVsearch
p3909
aVdirect
p3910
assS'336226765'
p3911
(dp3912
V286539034
p3913
(lp3914
Vgc
p3915
aVsafari
p3916
aVff
p3917
aVie
p3918
aVunknown
p3919
aVopera
p3920
asV285473938
p3921
(lp3922
Vfalse
p3923
aVtrue
p3924
asV287549210
p3925
(lp3926
Vnone
p3927
aVdsa - furniture
p3928
aVlowe's+-+tier+1+-+ho
p3929
asV285773249
p3930
(lp3931
Vdirect
p3932
aVsearch
p3933
aVcampaign
p3934
aVreferral
p3935
assS'590330698'
p3936
(dp3937
V286539034
p3938
(lp3939
Vsafari
p3940
aVgc
p3941
aVie
p3942
aVff
p3943
aVunknown
p3944
aVopera
p3945
asV285473938
p3946
(lp3947
Vtrue
p3948
aVfalse
p3949
asV287549210
p3950
(lp3951
Vnone
p3952
aVdsa - bath
p3953
asV285773249
p3954
(lp3955
Vdirect
p3956
aVsearch
p3957
aVcampaign
p3958
aVreferral
p3959
assS'399840373'
p3960
(dp3961
V286539034
p3962
(lp3963
Vie
p3964
aVff
p3965
aVsafari
p3966
aVgc
p3967
aVunknown
p3968
aVopera
p3969
asV285473938
p3970
(lp3971
Vfalse
p3972
aVtrue
p3973
asV287549210
p3974
(lp3975
Vnone
p3976
aVomd_digital_display
p3977
aVdsa - bath
p3978
aVdsa - lowe's
p3979
aVlowe's+-+tier+1+-+fu
p3980
aVdsa - appliances
p3981
aVdsa - building mater
p3982
aVdsa - home decor
p3983
aVdsa - furniture
p3984
aVdsa - kitchen
p3985
asV285773249
p3986
(lp3987
Vcampaign
p3988
aVreferral
p3989
aVsearch
p3990
aVdirect
p3991
assS'341371492'
p3992
(dp3993
V286539034
p3994
(lp3995
Vff
p3996
aVie
p3997
aVsafari
p3998
aVgc
p3999
aVunknown
p4000
asV285473938
p4001
(lp4002
Vfalse
p4003
aVtrue
p4004
asV287549210
p4005
(lp4006
Vnone
p4007
asV285773249
p4008
(lp4009
Vcampaign
p4010
aVdirect
p4011
aVreferral
p4012
aVsearch
p4013
assS'567520556'
p4014
(dp4015
V286539034
p4016
(lp4017
Vie
p4018
aVunknown
p4019
aVsafari
p4020
aVgc
p4021
aVff
p4022
aVopera
p4023
asV285473938
p4024
(lp4025
Vfalse
p4026
aVtrue
p4027
asV287549210
p4028
(lp4029
Vnone
p4030
aVdsa - lowe's
p4031
aVomd_digital_display
p4032
aVdsa - outdoor
p4033
aVlowe'sannouncement
p4034
aVdsa - kitchen
p4035
aVdsa - lighting
p4036
asV285773249
p4037
(lp4038
Vcampaign
p4039
aVreferral
p4040
aVsearch
p4041
aVdirect
p4042
assS'430430441'
p4043
(dp4044
V286539034
p4045
(lp4046
Vff
p4047
aVunknown
p4048
aVgc
p4049
aVie
p4050
aVopera
p4051
aVsafari
p4052
asV285473938
p4053
(lp4054
Vtrue
p4055
aVfalse
p4056
asV287549210
p4057
(lp4058
Vflyer
p4059
aVnone
p4060
aVomd_digital_display
p4061
aVdsa - home decor
p4062
aVdsa - lowe's
p4063
aVdsa - bath
p4064
aVdsa - furniture
p4065
aVdsa - lighting
p4066
aVdsa - kitchen
p4067
aVdsa - appliances
p4068
aVdsa - outdoor
p4069
aVpromo
p4070
asV285773249
p4071
(lp4072
Vcampaign
p4073
aVreferral
p4074
aVdirect
p4075
aVsearch
p4076
assS'589342218'
p4077
(dp4078
V286539034
p4079
(lp4080
Vgc
p4081
aVie
p4082
aVff
p4083
aVsafari
p4084
aVunknown
p4085
asV285473938
p4086
(lp4087
Vfalse
p4088
aVtrue
p4089
asV287549210
p4090
(lp4091
Vnone
p4092
asV285773249
p4093
(lp4094
Vreferral
p4095
aVcampaign
p4096
aVsearch
p4097
aVdirect
p4098
assS'576682029'
p4099
(dp4100
V286539034
p4101
(lp4102
Vie
p4103
aVunknown
p4104
aVff
p4105
aVgc
p4106
aVsafari
p4107
aVopera
p4108
asV285473938
p4109
(lp4110
Vtrue
p4111
aVfalse
p4112
asV287549210
p4113
(lp4114
Vlowe's+-+tier+1+-+lo
p4115
aVnone
p4116
aVdsa - lowe's
p4117
aVdsa - building mater
p4118
aVomd_digital_display
p4119
aVdsa - kitchen
p4120
aVdsa - lighting
p4121
aVdsa - home decor
p4122
aVdsa - furniture
p4123
aVdsa - bath
p4124
aVdsa%20-%20lowe's
p4125
aVdsa - hardware
p4126
aVdsa - outdoor
p4127
aVvenpop
p4128
aVlowe'sannouncement
p4129
aVlowe's+-+tier+1+-+ki
p4130
asV285773249
p4131
(lp4132
Vcampaign
p4133
aVdirect
p4134
aVsearch
p4135
aVreferral
p4136
assS'385821012'
p4137
(dp4138
V286539034
p4139
(lp4140
Vopera
p4141
aVsafari
p4142
aVff
p4143
aVie
p4144
aVgc
p4145
aVunknown
p4146
asV285473938
p4147
(lp4148
Vfalse
p4149
aVtrue
p4150
asV287549210
p4151
(lp4152
Vdsa - kitchen
p4153
aVdsa - lowe's
p4154
aVdsa - bath
p4155
aVomd_digital_display
p4156
aVnone
p4157
aVdsa - outdoor
p4158
aVdsa - appliances
p4159
aVlowe's+-+tier+1+-+lo
p4160
aVdsa - home decor
p4161
aVdsa - lighting
p4162
aVpromo
p4163
asV285773249
p4164
(lp4165
Vsearch
p4166
aVcampaign
p4167
aVdirect
p4168
aVreferral
p4169
ass.